
JwiK-VM.elf:     file format elf32-avr

Sections:
Idx Name          Size      VMA       LMA       File off  Algn
  0 .data         00000038  00800100  00002860  000028f4  2**0
                  CONTENTS, ALLOC, LOAD, DATA
  1 .text         00002860  00000000  00000000  00000094  2**1
                  CONTENTS, ALLOC, LOAD, READONLY, CODE
  2 .bss          00001fb2  00800138  00800138  0000292c  2**0
                  ALLOC
  3 .stab         00003f24  00000000  00000000  0000292c  2**2
                  CONTENTS, READONLY, DEBUGGING
  4 .stabstr      0000141f  00000000  00000000  00006850  2**0
                  CONTENTS, READONLY, DEBUGGING
  5 .comment      00000042  00000000  00000000  00007c6f  2**0
                  CONTENTS, READONLY

Disassembly of section .text:

00000000 <__vectors>:
       0:	0c 94 45 00 	jmp	0x8a	; 0x8a <__ctors_end>
       4:	0c 94 62 00 	jmp	0xc4	; 0xc4 <__bad_interrupt>
       8:	0c 94 62 00 	jmp	0xc4	; 0xc4 <__bad_interrupt>
       c:	0c 94 62 00 	jmp	0xc4	; 0xc4 <__bad_interrupt>
      10:	0c 94 62 00 	jmp	0xc4	; 0xc4 <__bad_interrupt>
      14:	0c 94 62 00 	jmp	0xc4	; 0xc4 <__bad_interrupt>
      18:	0c 94 62 00 	jmp	0xc4	; 0xc4 <__bad_interrupt>
      1c:	0c 94 62 00 	jmp	0xc4	; 0xc4 <__bad_interrupt>
      20:	0c 94 62 00 	jmp	0xc4	; 0xc4 <__bad_interrupt>
      24:	0c 94 62 00 	jmp	0xc4	; 0xc4 <__bad_interrupt>
      28:	0c 94 62 00 	jmp	0xc4	; 0xc4 <__bad_interrupt>
      2c:	0c 94 62 00 	jmp	0xc4	; 0xc4 <__bad_interrupt>
      30:	0c 94 62 00 	jmp	0xc4	; 0xc4 <__bad_interrupt>
      34:	0c 94 62 00 	jmp	0xc4	; 0xc4 <__bad_interrupt>
      38:	0c 94 62 00 	jmp	0xc4	; 0xc4 <__bad_interrupt>
      3c:	0c 94 62 00 	jmp	0xc4	; 0xc4 <__bad_interrupt>
      40:	0c 94 62 00 	jmp	0xc4	; 0xc4 <__bad_interrupt>
      44:	0c 94 62 00 	jmp	0xc4	; 0xc4 <__bad_interrupt>
      48:	0c 94 f8 01 	jmp	0x3f0	; 0x3f0 <__vector_18>
      4c:	0c 94 22 02 	jmp	0x444	; 0x444 <__vector_19>
      50:	0c 94 62 00 	jmp	0xc4	; 0xc4 <__bad_interrupt>
      54:	0c 94 62 00 	jmp	0xc4	; 0xc4 <__bad_interrupt>
      58:	0c 94 62 00 	jmp	0xc4	; 0xc4 <__bad_interrupt>
      5c:	0c 94 62 00 	jmp	0xc4	; 0xc4 <__bad_interrupt>
      60:	0c 94 62 00 	jmp	0xc4	; 0xc4 <__bad_interrupt>
      64:	0c 94 62 00 	jmp	0xc4	; 0xc4 <__bad_interrupt>
      68:	76 02       	muls	r23, r22
      6a:	96 02       	muls	r25, r22
      6c:	b6 02       	muls	r27, r22
      6e:	7a 03       	fmul	r23, r18
      70:	82 03       	fmuls	r16, r18
      72:	78 03       	fmul	r23, r16
      74:	7c 03       	fmul	r23, r20
      76:	7c 03       	fmul	r23, r20
      78:	eb 02       	muls	r30, r27
      7a:	c6 02       	muls	r28, r22
      7c:	eb 02       	muls	r30, r27
      7e:	09 03       	fmul	r16, r17
      80:	24 03       	mulsu	r18, r20
      82:	53 03       	mulsu	r21, r19
      84:	3c 03       	fmul	r19, r20
      86:	53 03       	mulsu	r21, r19
      88:	53 03       	mulsu	r21, r19

0000008a <__ctors_end>:
      8a:	11 24       	eor	r1, r1
      8c:	1f be       	out	0x3f, r1	; 63
      8e:	cf ef       	ldi	r28, 0xFF	; 255
      90:	d8 e0       	ldi	r29, 0x08	; 8
      92:	de bf       	out	0x3e, r29	; 62
      94:	cd bf       	out	0x3d, r28	; 61

00000096 <__do_copy_data>:
      96:	11 e0       	ldi	r17, 0x01	; 1
      98:	a0 e0       	ldi	r26, 0x00	; 0
      9a:	b1 e0       	ldi	r27, 0x01	; 1
      9c:	e0 e6       	ldi	r30, 0x60	; 96
      9e:	f8 e2       	ldi	r31, 0x28	; 40
      a0:	02 c0       	rjmp	.+4      	; 0xa6 <__do_copy_data+0x10>
      a2:	05 90       	lpm	r0, Z+
      a4:	0d 92       	st	X+, r0
      a6:	a8 33       	cpi	r26, 0x38	; 56
      a8:	b1 07       	cpc	r27, r17
      aa:	d9 f7       	brne	.-10     	; 0xa2 <__do_copy_data+0xc>

000000ac <__do_clear_bss>:
      ac:	10 e2       	ldi	r17, 0x20	; 32
      ae:	a8 e3       	ldi	r26, 0x38	; 56
      b0:	b1 e0       	ldi	r27, 0x01	; 1
      b2:	01 c0       	rjmp	.+2      	; 0xb6 <.do_clear_bss_start>

000000b4 <.do_clear_bss_loop>:
      b4:	1d 92       	st	X+, r1

000000b6 <.do_clear_bss_start>:
      b6:	aa 3e       	cpi	r26, 0xEA	; 234
      b8:	b1 07       	cpc	r27, r17
      ba:	e1 f7       	brne	.-8      	; 0xb4 <.do_clear_bss_loop>
      bc:	0e 94 59 02 	call	0x4b2	; 0x4b2 <main>
      c0:	0c 94 2e 14 	jmp	0x285c	; 0x285c <_exit>

000000c4 <__bad_interrupt>:
      c4:	0c 94 00 00 	jmp	0	; 0x0 <__vectors>

000000c8 <cb_init>:
      c8:	cf 93       	push	r28
      ca:	df 93       	push	r29
      cc:	84 e0       	ldi	r24, 0x04	; 4
      ce:	90 e0       	ldi	r25, 0x00	; 0
      d0:	0e 94 e6 0f 	call	0x1fcc	; 0x1fcc <malloc>
      d4:	ec 01       	movw	r28, r24
      d6:	00 97       	sbiw	r24, 0x00	; 0
      d8:	81 f0       	breq	.+32     	; 0xfa <cb_init+0x32>
      da:	80 e2       	ldi	r24, 0x20	; 32
      dc:	90 e0       	ldi	r25, 0x00	; 0
      de:	0e 94 e6 0f 	call	0x1fcc	; 0x1fcc <malloc>
      e2:	99 83       	std	Y+1, r25	; 0x01
      e4:	88 83       	st	Y, r24
      e6:	89 2b       	or	r24, r25
      e8:	21 f4       	brne	.+8      	; 0xf2 <cb_init+0x2a>
      ea:	ce 01       	movw	r24, r28
      ec:	0e 94 7e 10 	call	0x20fc	; 0x20fc <free>
      f0:	04 c0       	rjmp	.+8      	; 0xfa <cb_init+0x32>
      f2:	1a 82       	std	Y+2, r1	; 0x02
      f4:	1b 82       	std	Y+3, r1	; 0x03
      f6:	ce 01       	movw	r24, r28
      f8:	02 c0       	rjmp	.+4      	; 0xfe <cb_init+0x36>
      fa:	80 e0       	ldi	r24, 0x00	; 0
      fc:	90 e0       	ldi	r25, 0x00	; 0
      fe:	df 91       	pop	r29
     100:	cf 91       	pop	r28
     102:	08 95       	ret

00000104 <cb_putc>:
     104:	fc 01       	movw	r30, r24
     106:	00 97       	sbiw	r24, 0x00	; 0
     108:	a9 f0       	breq	.+42     	; 0x134 <cb_putc+0x30>
     10a:	83 81       	ldd	r24, Z+3	; 0x03
     10c:	80 32       	cpi	r24, 0x20	; 32
     10e:	90 f4       	brcc	.+36     	; 0x134 <cb_putc+0x30>
     110:	2f b7       	in	r18, 0x3f	; 63
     112:	f8 94       	cli
     114:	a0 81       	ld	r26, Z
     116:	b1 81       	ldd	r27, Z+1	; 0x01
     118:	32 81       	ldd	r19, Z+2	; 0x02
     11a:	83 81       	ldd	r24, Z+3	; 0x03
     11c:	90 e0       	ldi	r25, 0x00	; 0
     11e:	83 0f       	add	r24, r19
     120:	91 1d       	adc	r25, r1
     122:	8f 71       	andi	r24, 0x1F	; 31
     124:	99 27       	eor	r25, r25
     126:	a8 0f       	add	r26, r24
     128:	b9 1f       	adc	r27, r25
     12a:	6c 93       	st	X, r22
     12c:	83 81       	ldd	r24, Z+3	; 0x03
     12e:	8f 5f       	subi	r24, 0xFF	; 255
     130:	83 83       	std	Z+3, r24	; 0x03
     132:	2f bf       	out	0x3f, r18	; 63
     134:	08 95       	ret

00000136 <cb_puts>:
     136:	ef 92       	push	r14
     138:	ff 92       	push	r15
     13a:	0f 93       	push	r16
     13c:	1f 93       	push	r17
     13e:	cf 93       	push	r28
     140:	df 93       	push	r29
     142:	1f 92       	push	r1
     144:	cd b7       	in	r28, 0x3d	; 61
     146:	de b7       	in	r29, 0x3e	; 62
     148:	8c 01       	movw	r16, r24
     14a:	7b 01       	movw	r14, r22
     14c:	44 23       	and	r20, r20
     14e:	51 f0       	breq	.+20     	; 0x164 <cb_puts+0x2e>
     150:	f7 01       	movw	r30, r14
     152:	61 91       	ld	r22, Z+
     154:	7f 01       	movw	r14, r30
     156:	c8 01       	movw	r24, r16
     158:	49 83       	std	Y+1, r20	; 0x01
     15a:	0e 94 82 00 	call	0x104	; 0x104 <cb_putc>
     15e:	49 81       	ldd	r20, Y+1	; 0x01
     160:	41 50       	subi	r20, 0x01	; 1
     162:	f4 cf       	rjmp	.-24     	; 0x14c <cb_puts+0x16>
     164:	0f 90       	pop	r0
     166:	df 91       	pop	r29
     168:	cf 91       	pop	r28
     16a:	1f 91       	pop	r17
     16c:	0f 91       	pop	r16
     16e:	ff 90       	pop	r15
     170:	ef 90       	pop	r14
     172:	08 95       	ret

00000174 <cb_getc>:
     174:	fc 01       	movw	r30, r24
     176:	00 97       	sbiw	r24, 0x00	; 0
     178:	a1 f0       	breq	.+40     	; 0x1a2 <cb_getc+0x2e>
     17a:	83 81       	ldd	r24, Z+3	; 0x03
     17c:	88 23       	and	r24, r24
     17e:	91 f0       	breq	.+36     	; 0x1a4 <cb_getc+0x30>
     180:	a0 81       	ld	r26, Z
     182:	b1 81       	ldd	r27, Z+1	; 0x01
     184:	82 81       	ldd	r24, Z+2	; 0x02
     186:	a8 0f       	add	r26, r24
     188:	b1 1d       	adc	r27, r1
     18a:	8c 91       	ld	r24, X
     18c:	2f b7       	in	r18, 0x3f	; 63
     18e:	f8 94       	cli
     190:	92 81       	ldd	r25, Z+2	; 0x02
     192:	9f 5f       	subi	r25, 0xFF	; 255
     194:	9f 71       	andi	r25, 0x1F	; 31
     196:	92 83       	std	Z+2, r25	; 0x02
     198:	93 81       	ldd	r25, Z+3	; 0x03
     19a:	91 50       	subi	r25, 0x01	; 1
     19c:	93 83       	std	Z+3, r25	; 0x03
     19e:	2f bf       	out	0x3f, r18	; 63
     1a0:	08 95       	ret
     1a2:	80 e0       	ldi	r24, 0x00	; 0
     1a4:	08 95       	ret

000001a6 <cb_hasRoom>:
     1a6:	fc 01       	movw	r30, r24
     1a8:	93 81       	ldd	r25, Z+3	; 0x03
     1aa:	81 e0       	ldi	r24, 0x01	; 1
     1ac:	90 32       	cpi	r25, 0x20	; 32
     1ae:	08 f0       	brcs	.+2      	; 0x1b2 <cb_hasRoom+0xc>
     1b0:	80 e0       	ldi	r24, 0x00	; 0
     1b2:	08 95       	ret

000001b4 <cb_hasData>:
     1b4:	fc 01       	movw	r30, r24
     1b6:	83 81       	ldd	r24, Z+3	; 0x03
     1b8:	08 95       	ret

000001ba <cb_free>:
     1ba:	cf 93       	push	r28
     1bc:	df 93       	push	r29
     1be:	ec 01       	movw	r28, r24
     1c0:	00 97       	sbiw	r24, 0x00	; 0
     1c2:	49 f0       	breq	.+18     	; 0x1d6 <cb_free+0x1c>
     1c4:	88 81       	ld	r24, Y
     1c6:	99 81       	ldd	r25, Y+1	; 0x01
     1c8:	0e 94 7e 10 	call	0x20fc	; 0x20fc <free>
     1cc:	ce 01       	movw	r24, r28
     1ce:	df 91       	pop	r29
     1d0:	cf 91       	pop	r28
     1d2:	0c 94 7e 10 	jmp	0x20fc	; 0x20fc <free>
     1d6:	df 91       	pop	r29
     1d8:	cf 91       	pop	r28
     1da:	08 95       	ret

000001dc <cb_print>:
     1dc:	cf 93       	push	r28
     1de:	df 93       	push	r29
     1e0:	ec 01       	movw	r28, r24
     1e2:	00 97       	sbiw	r24, 0x00	; 0
     1e4:	29 f1       	breq	.+74     	; 0x230 <cb_print+0x54>
     1e6:	86 e0       	ldi	r24, 0x06	; 6
     1e8:	91 e0       	ldi	r25, 0x01	; 1
     1ea:	0e 94 42 11 	call	0x2284	; 0x2284 <puts>
     1ee:	88 81       	ld	r24, Y
     1f0:	99 81       	ldd	r25, Y+1	; 0x01
     1f2:	9f 93       	push	r25
     1f4:	8f 93       	push	r24
     1f6:	85 e1       	ldi	r24, 0x15	; 21
     1f8:	91 e0       	ldi	r25, 0x01	; 1
     1fa:	9f 93       	push	r25
     1fc:	8f 93       	push	r24
     1fe:	0e 94 2e 11 	call	0x225c	; 0x225c <printf>
     202:	9b 81       	ldd	r25, Y+3	; 0x03
     204:	8a 81       	ldd	r24, Y+2	; 0x02
     206:	1f 92       	push	r1
     208:	9f 93       	push	r25
     20a:	1f 92       	push	r1
     20c:	8f 93       	push	r24
     20e:	1f 92       	push	r1
     210:	80 e2       	ldi	r24, 0x20	; 32
     212:	8f 93       	push	r24
     214:	81 e2       	ldi	r24, 0x21	; 33
     216:	91 e0       	ldi	r25, 0x01	; 1
     218:	9f 93       	push	r25
     21a:	8f 93       	push	r24
     21c:	0e 94 2e 11 	call	0x225c	; 0x225c <printf>
     220:	8d b7       	in	r24, 0x3d	; 61
     222:	9e b7       	in	r25, 0x3e	; 62
     224:	0c 96       	adiw	r24, 0x0c	; 12
     226:	0f b6       	in	r0, 0x3f	; 63
     228:	f8 94       	cli
     22a:	9e bf       	out	0x3e, r25	; 62
     22c:	0f be       	out	0x3f, r0	; 63
     22e:	8d bf       	out	0x3d, r24	; 61
     230:	df 91       	pop	r29
     232:	cf 91       	pop	r28
     234:	08 95       	ret

00000236 <uart_init>:
     236:	10 92 c1 00 	sts	0x00C1, r1
     23a:	80 91 3a 01 	lds	r24, 0x013A
     23e:	90 91 3b 01 	lds	r25, 0x013B
     242:	89 2b       	or	r24, r25
     244:	31 f4       	brne	.+12     	; 0x252 <uart_init+0x1c>
     246:	0e 94 64 00 	call	0xc8	; 0xc8 <cb_init>
     24a:	90 93 3b 01 	sts	0x013B, r25
     24e:	80 93 3a 01 	sts	0x013A, r24
     252:	80 91 38 01 	lds	r24, 0x0138
     256:	90 91 39 01 	lds	r25, 0x0139
     25a:	89 2b       	or	r24, r25
     25c:	31 f4       	brne	.+12     	; 0x26a <uart_init+0x34>
     25e:	0e 94 64 00 	call	0xc8	; 0xc8 <cb_init>
     262:	90 93 39 01 	sts	0x0139, r25
     266:	80 93 38 01 	sts	0x0138, r24
     26a:	87 e6       	ldi	r24, 0x67	; 103
     26c:	90 e0       	ldi	r25, 0x00	; 0
     26e:	90 93 c5 00 	sts	0x00C5, r25
     272:	80 93 c4 00 	sts	0x00C4, r24
     276:	10 92 c0 00 	sts	0x00C0, r1
     27a:	80 91 c1 00 	lds	r24, 0x00C1
     27e:	80 93 c1 00 	sts	0x00C1, r24
     282:	86 e0       	ldi	r24, 0x06	; 6
     284:	80 93 c2 00 	sts	0x00C2, r24
     288:	80 91 c1 00 	lds	r24, 0x00C1
     28c:	88 6b       	ori	r24, 0xB8	; 184
     28e:	80 93 c1 00 	sts	0x00C1, r24
     292:	18 b8       	out	0x08, r1	; 8
     294:	08 95       	ret

00000296 <uart_close>:
     296:	80 91 38 01 	lds	r24, 0x0138
     29a:	90 91 39 01 	lds	r25, 0x0139
     29e:	0e 94 dd 00 	call	0x1ba	; 0x1ba <cb_free>
     2a2:	80 91 3a 01 	lds	r24, 0x013A
     2a6:	90 91 3b 01 	lds	r25, 0x013B
     2aa:	0c 94 dd 00 	jmp	0x1ba	; 0x1ba <cb_free>

000002ae <uart_putc>:
     2ae:	68 2f       	mov	r22, r24
     2b0:	80 91 38 01 	lds	r24, 0x0138
     2b4:	90 91 39 01 	lds	r25, 0x0139
     2b8:	0e 94 82 00 	call	0x104	; 0x104 <cb_putc>
     2bc:	e1 ec       	ldi	r30, 0xC1	; 193
     2be:	f0 e0       	ldi	r31, 0x00	; 0
     2c0:	80 81       	ld	r24, Z
     2c2:	80 62       	ori	r24, 0x20	; 32
     2c4:	80 83       	st	Z, r24
     2c6:	08 95       	ret

000002c8 <uart_getc>:
     2c8:	80 91 3a 01 	lds	r24, 0x013A
     2cc:	90 91 3b 01 	lds	r25, 0x013B
     2d0:	0c 94 ba 00 	jmp	0x174	; 0x174 <cb_getc>

000002d4 <uart_puts>:
     2d4:	46 2f       	mov	r20, r22
     2d6:	bc 01       	movw	r22, r24
     2d8:	80 91 38 01 	lds	r24, 0x0138
     2dc:	90 91 39 01 	lds	r25, 0x0139
     2e0:	0e 94 9b 00 	call	0x136	; 0x136 <cb_puts>
     2e4:	e1 ec       	ldi	r30, 0xC1	; 193
     2e6:	f0 e0       	ldi	r31, 0x00	; 0
     2e8:	80 81       	ld	r24, Z
     2ea:	80 62       	ori	r24, 0x20	; 32
     2ec:	80 83       	st	Z, r24
     2ee:	08 95       	ret

000002f0 <uart_hasRoom>:
     2f0:	80 91 38 01 	lds	r24, 0x0138
     2f4:	90 91 39 01 	lds	r25, 0x0139
     2f8:	0c 94 d3 00 	jmp	0x1a6	; 0x1a6 <cb_hasRoom>

000002fc <uart_hasData>:
     2fc:	80 91 3a 01 	lds	r24, 0x013A
     300:	90 91 3b 01 	lds	r25, 0x013B
     304:	0c 94 da 00 	jmp	0x1b4	; 0x1b4 <cb_hasData>

00000308 <uart_putnum8>:
     308:	1f 93       	push	r17
     30a:	cf 93       	push	r28
     30c:	df 93       	push	r29
     30e:	c8 2f       	mov	r28, r24
     310:	44 e0       	ldi	r20, 0x04	; 4
     312:	62 e3       	ldi	r22, 0x32	; 50
     314:	71 e0       	ldi	r23, 0x01	; 1
     316:	80 91 38 01 	lds	r24, 0x0138
     31a:	90 91 39 01 	lds	r25, 0x0139
     31e:	0e 94 9b 00 	call	0x136	; 0x136 <cb_puts>
     322:	8c 2f       	mov	r24, r28
     324:	64 e6       	ldi	r22, 0x64	; 100
     326:	0e 94 65 0f 	call	0x1eca	; 0x1eca <__udivmodqi4>
     32a:	19 2f       	mov	r17, r25
     32c:	60 e3       	ldi	r22, 0x30	; 48
     32e:	68 0f       	add	r22, r24
     330:	80 91 38 01 	lds	r24, 0x0138
     334:	90 91 39 01 	lds	r25, 0x0139
     338:	0e 94 82 00 	call	0x104	; 0x104 <cb_putc>
     33c:	da e0       	ldi	r29, 0x0A	; 10
     33e:	81 2f       	mov	r24, r17
     340:	6d 2f       	mov	r22, r29
     342:	0e 94 65 0f 	call	0x1eca	; 0x1eca <__udivmodqi4>
     346:	80 5d       	subi	r24, 0xD0	; 208
     348:	68 2f       	mov	r22, r24
     34a:	80 91 38 01 	lds	r24, 0x0138
     34e:	90 91 39 01 	lds	r25, 0x0139
     352:	0e 94 82 00 	call	0x104	; 0x104 <cb_putc>
     356:	8c 2f       	mov	r24, r28
     358:	6d 2f       	mov	r22, r29
     35a:	0e 94 65 0f 	call	0x1eca	; 0x1eca <__udivmodqi4>
     35e:	90 5d       	subi	r25, 0xD0	; 208
     360:	69 2f       	mov	r22, r25
     362:	80 91 38 01 	lds	r24, 0x0138
     366:	90 91 39 01 	lds	r25, 0x0139
     36a:	0e 94 82 00 	call	0x104	; 0x104 <cb_putc>
     36e:	e1 ec       	ldi	r30, 0xC1	; 193
     370:	f0 e0       	ldi	r31, 0x00	; 0
     372:	80 81       	ld	r24, Z
     374:	80 62       	ori	r24, 0x20	; 32
     376:	80 83       	st	Z, r24
     378:	df 91       	pop	r29
     37a:	cf 91       	pop	r28
     37c:	1f 91       	pop	r17
     37e:	08 95       	ret

00000380 <uart_putnum16>:
     380:	0f 93       	push	r16
     382:	1f 93       	push	r17
     384:	cf 93       	push	r28
     386:	df 93       	push	r29
     388:	cd b7       	in	r28, 0x3d	; 61
     38a:	de b7       	in	r29, 0x3e	; 62
     38c:	27 97       	sbiw	r28, 0x07	; 7
     38e:	0f b6       	in	r0, 0x3f	; 63
     390:	f8 94       	cli
     392:	de bf       	out	0x3e, r29	; 62
     394:	0f be       	out	0x3f, r0	; 63
     396:	cd bf       	out	0x3d, r28	; 61
     398:	8e 01       	movw	r16, r28
     39a:	0f 5f       	subi	r16, 0xFF	; 255
     39c:	1f 4f       	sbci	r17, 0xFF	; 255
     39e:	27 e0       	ldi	r18, 0x07	; 7
     3a0:	f8 01       	movw	r30, r16
     3a2:	11 92       	st	Z+, r1
     3a4:	2a 95       	dec	r18
     3a6:	e9 f7       	brne	.-6      	; 0x3a2 <uart_putnum16+0x22>
     3a8:	4a e0       	ldi	r20, 0x0A	; 10
     3aa:	50 e0       	ldi	r21, 0x00	; 0
     3ac:	b8 01       	movw	r22, r16
     3ae:	0e 94 0d 11 	call	0x221a	; 0x221a <itoa>
     3b2:	f8 01       	movw	r30, r16
     3b4:	40 e0       	ldi	r20, 0x00	; 0
     3b6:	81 91       	ld	r24, Z+
     3b8:	88 23       	and	r24, r24
     3ba:	19 f0       	breq	.+6      	; 0x3c2 <uart_putnum16+0x42>
     3bc:	4f 5f       	subi	r20, 0xFF	; 255
     3be:	46 30       	cpi	r20, 0x06	; 6
     3c0:	d1 f7       	brne	.-12     	; 0x3b6 <uart_putnum16+0x36>
     3c2:	b8 01       	movw	r22, r16
     3c4:	80 91 38 01 	lds	r24, 0x0138
     3c8:	90 91 39 01 	lds	r25, 0x0139
     3cc:	0e 94 9b 00 	call	0x136	; 0x136 <cb_puts>
     3d0:	80 91 c1 00 	lds	r24, 0x00C1
     3d4:	80 62       	ori	r24, 0x20	; 32
     3d6:	80 93 c1 00 	sts	0x00C1, r24
     3da:	27 96       	adiw	r28, 0x07	; 7
     3dc:	0f b6       	in	r0, 0x3f	; 63
     3de:	f8 94       	cli
     3e0:	de bf       	out	0x3e, r29	; 62
     3e2:	0f be       	out	0x3f, r0	; 63
     3e4:	cd bf       	out	0x3d, r28	; 61
     3e6:	df 91       	pop	r29
     3e8:	cf 91       	pop	r28
     3ea:	1f 91       	pop	r17
     3ec:	0f 91       	pop	r16
     3ee:	08 95       	ret

000003f0 <__vector_18>:
     3f0:	1f 92       	push	r1
     3f2:	0f 92       	push	r0
     3f4:	0f b6       	in	r0, 0x3f	; 63
     3f6:	0f 92       	push	r0
     3f8:	11 24       	eor	r1, r1
     3fa:	2f 93       	push	r18
     3fc:	3f 93       	push	r19
     3fe:	4f 93       	push	r20
     400:	5f 93       	push	r21
     402:	6f 93       	push	r22
     404:	7f 93       	push	r23
     406:	8f 93       	push	r24
     408:	9f 93       	push	r25
     40a:	af 93       	push	r26
     40c:	bf 93       	push	r27
     40e:	ef 93       	push	r30
     410:	ff 93       	push	r31
     412:	60 91 c6 00 	lds	r22, 0x00C6
     416:	80 91 3a 01 	lds	r24, 0x013A
     41a:	90 91 3b 01 	lds	r25, 0x013B
     41e:	0e 94 82 00 	call	0x104	; 0x104 <cb_putc>
     422:	ff 91       	pop	r31
     424:	ef 91       	pop	r30
     426:	bf 91       	pop	r27
     428:	af 91       	pop	r26
     42a:	9f 91       	pop	r25
     42c:	8f 91       	pop	r24
     42e:	7f 91       	pop	r23
     430:	6f 91       	pop	r22
     432:	5f 91       	pop	r21
     434:	4f 91       	pop	r20
     436:	3f 91       	pop	r19
     438:	2f 91       	pop	r18
     43a:	0f 90       	pop	r0
     43c:	0f be       	out	0x3f, r0	; 63
     43e:	0f 90       	pop	r0
     440:	1f 90       	pop	r1
     442:	18 95       	reti

00000444 <__vector_19>:
     444:	1f 92       	push	r1
     446:	0f 92       	push	r0
     448:	0f b6       	in	r0, 0x3f	; 63
     44a:	0f 92       	push	r0
     44c:	11 24       	eor	r1, r1
     44e:	2f 93       	push	r18
     450:	3f 93       	push	r19
     452:	4f 93       	push	r20
     454:	5f 93       	push	r21
     456:	6f 93       	push	r22
     458:	7f 93       	push	r23
     45a:	8f 93       	push	r24
     45c:	9f 93       	push	r25
     45e:	af 93       	push	r26
     460:	bf 93       	push	r27
     462:	ef 93       	push	r30
     464:	ff 93       	push	r31
     466:	80 91 38 01 	lds	r24, 0x0138
     46a:	90 91 39 01 	lds	r25, 0x0139
     46e:	fc 01       	movw	r30, r24
     470:	23 81       	ldd	r18, Z+3	; 0x03
     472:	22 23       	and	r18, r18
     474:	29 f0       	breq	.+10     	; 0x480 <__vector_19+0x3c>
     476:	0e 94 ba 00 	call	0x174	; 0x174 <cb_getc>
     47a:	80 93 c6 00 	sts	0x00C6, r24
     47e:	05 c0       	rjmp	.+10     	; 0x48a <__vector_19+0x46>
     480:	80 91 c1 00 	lds	r24, 0x00C1
     484:	8f 7d       	andi	r24, 0xDF	; 223
     486:	80 93 c1 00 	sts	0x00C1, r24
     48a:	ff 91       	pop	r31
     48c:	ef 91       	pop	r30
     48e:	bf 91       	pop	r27
     490:	af 91       	pop	r26
     492:	9f 91       	pop	r25
     494:	8f 91       	pop	r24
     496:	7f 91       	pop	r23
     498:	6f 91       	pop	r22
     49a:	5f 91       	pop	r21
     49c:	4f 91       	pop	r20
     49e:	3f 91       	pop	r19
     4a0:	2f 91       	pop	r18
     4a2:	0f 90       	pop	r0
     4a4:	0f be       	out	0x3f, r0	; 63
     4a6:	0f 90       	pop	r0
     4a8:	1f 90       	pop	r1
     4aa:	18 95       	reti

000004ac <FlashReadByte>:
     4ac:	fc 01       	movw	r30, r24
     4ae:	84 91       	lpm	r24, Z
     4b0:	08 95       	ret

000004b2 <main>:
     4b2:	0e 94 cc 03 	call	0x798	; 0x798 <NativeInitialize>
     4b6:	0e 94 d1 03 	call	0x7a2	; 0x7a2 <PlatformInitialize>
     4ba:	0e 94 a6 0a 	call	0x154c	; 0x154c <VmFileInitialize>
     4be:	0e 94 fd 03 	call	0x7fa	; 0x7fa <VmInitialize>
     4c2:	0e 94 19 0b 	call	0x1632	; 0x1632 <VmFileJumpToMain>
     4c6:	80 e0       	ldi	r24, 0x00	; 0
     4c8:	90 e0       	ldi	r25, 0x00	; 0
     4ca:	08 95       	ret

000004cc <InitializeMicroAPI>:
     4cc:	08 95       	ret

000004ce <NativeBrikInvoke>:
     4ce:	cf 92       	push	r12
     4d0:	df 92       	push	r13
     4d2:	ef 92       	push	r14
     4d4:	ff 92       	push	r15
     4d6:	90 e0       	ldi	r25, 0x00	; 0
     4d8:	fc 01       	movw	r30, r24
     4da:	31 97       	sbiw	r30, 0x01	; 1
     4dc:	e8 30       	cpi	r30, 0x08	; 8
     4de:	f1 05       	cpc	r31, r1
     4e0:	08 f0       	brcs	.+2      	; 0x4e4 <NativeBrikInvoke+0x16>
     4e2:	10 c1       	rjmp	.+544    	; 0x704 <NativeBrikInvoke+0x236>
     4e4:	ec 5c       	subi	r30, 0xCC	; 204
     4e6:	ff 4f       	sbci	r31, 0xFF	; 255
     4e8:	0c 94 a4 0f 	jmp	0x1f48	; 0x1f48 <__tablejump2__>
     4ec:	0e 94 96 0e 	call	0x1d2c	; 0x1d2c <StackPopInt>
     4f0:	2f e0       	ldi	r18, 0x0F	; 15
     4f2:	26 9f       	mul	r18, r22
     4f4:	f0 01       	movw	r30, r0
     4f6:	27 9f       	mul	r18, r23
     4f8:	f0 0d       	add	r31, r0
     4fa:	11 24       	eor	r1, r1
     4fc:	e2 5c       	subi	r30, 0xC2	; 194
     4fe:	fe 4f       	sbci	r31, 0xFE	; 254
     500:	81 81       	ldd	r24, Z+1	; 0x01
     502:	81 11       	cpse	r24, r1
     504:	0a c0       	rjmp	.+20     	; 0x51a <NativeBrikInvoke+0x4c>
     506:	a2 81       	ldd	r26, Z+2	; 0x02
     508:	b3 81       	ldd	r27, Z+3	; 0x03
     50a:	2c 91       	ld	r18, X
     50c:	86 85       	ldd	r24, Z+14	; 0x0e
     50e:	28 23       	and	r18, r24
     510:	61 e0       	ldi	r22, 0x01	; 1
     512:	70 e0       	ldi	r23, 0x00	; 0
     514:	80 e0       	ldi	r24, 0x00	; 0
     516:	90 e0       	ldi	r25, 0x00	; 0
     518:	19 f4       	brne	.+6      	; 0x520 <NativeBrikInvoke+0x52>
     51a:	60 e0       	ldi	r22, 0x00	; 0
     51c:	70 e0       	ldi	r23, 0x00	; 0
     51e:	cb 01       	movw	r24, r22
     520:	ff 90       	pop	r15
     522:	ef 90       	pop	r14
     524:	df 90       	pop	r13
     526:	cf 90       	pop	r12
     528:	0c 94 77 0e 	jmp	0x1cee	; 0x1cee <StackPush>
     52c:	0e 94 96 0e 	call	0x1d2c	; 0x1d2c <StackPopInt>
     530:	6b 01       	movw	r12, r22
     532:	7c 01       	movw	r14, r24
     534:	0e 94 96 0e 	call	0x1d2c	; 0x1d2c <StackPopInt>
     538:	2f e0       	ldi	r18, 0x0F	; 15
     53a:	26 9f       	mul	r18, r22
     53c:	f0 01       	movw	r30, r0
     53e:	27 9f       	mul	r18, r23
     540:	f0 0d       	add	r31, r0
     542:	11 24       	eor	r1, r1
     544:	e2 5c       	subi	r30, 0xC2	; 194
     546:	fe 4f       	sbci	r31, 0xFE	; 254
     548:	81 81       	ldd	r24, Z+1	; 0x01
     54a:	81 30       	cpi	r24, 0x01	; 1
     54c:	09 f0       	breq	.+2      	; 0x550 <NativeBrikInvoke+0x82>
     54e:	da c0       	rjmp	.+436    	; 0x704 <NativeBrikInvoke+0x236>
     550:	a2 81       	ldd	r26, Z+2	; 0x02
     552:	b3 81       	ldd	r27, Z+3	; 0x03
     554:	96 85       	ldd	r25, Z+14	; 0x0e
     556:	ca 94       	dec	r12
     558:	cd 28       	or	r12, r13
     55a:	ce 28       	or	r12, r14
     55c:	cf 28       	or	r12, r15
     55e:	11 f4       	brne	.+4      	; 0x564 <NativeBrikInvoke+0x96>
     560:	8c 91       	ld	r24, X
     562:	c3 c0       	rjmp	.+390    	; 0x6ea <NativeBrikInvoke+0x21c>
     564:	90 95       	com	r25
     566:	8c 91       	ld	r24, X
     568:	89 23       	and	r24, r25
     56a:	c0 c0       	rjmp	.+384    	; 0x6ec <NativeBrikInvoke+0x21e>
     56c:	0e 94 96 0e 	call	0x1d2c	; 0x1d2c <StackPopInt>
     570:	6b 01       	movw	r12, r22
     572:	7c 01       	movw	r14, r24
     574:	0e 94 96 0e 	call	0x1d2c	; 0x1d2c <StackPopInt>
     578:	29 e0       	ldi	r18, 0x09	; 9
     57a:	c2 16       	cp	r12, r18
     57c:	d1 04       	cpc	r13, r1
     57e:	08 f0       	brcs	.+2      	; 0x582 <NativeBrikInvoke+0xb4>
     580:	c1 c0       	rjmp	.+386    	; 0x704 <NativeBrikInvoke+0x236>
     582:	f6 01       	movw	r30, r12
     584:	e4 5c       	subi	r30, 0xC4	; 196
     586:	ff 4f       	sbci	r31, 0xFF	; 255
     588:	0c 94 a4 0f 	jmp	0x1f48	; 0x1f48 <__tablejump2__>
     58c:	6b 01       	movw	r12, r22
     58e:	7c 01       	movw	r14, r24
     590:	26 e0       	ldi	r18, 0x06	; 6
     592:	c2 1a       	sub	r12, r18
     594:	d1 08       	sbc	r13, r1
     596:	e1 08       	sbc	r14, r1
     598:	f1 08       	sbc	r15, r1
     59a:	2e e0       	ldi	r18, 0x0E	; 14
     59c:	c2 16       	cp	r12, r18
     59e:	d1 04       	cpc	r13, r1
     5a0:	e1 04       	cpc	r14, r1
     5a2:	f1 04       	cpc	r15, r1
     5a4:	08 f0       	brcs	.+2      	; 0x5a8 <NativeBrikInvoke+0xda>
     5a6:	ae c0       	rjmp	.+348    	; 0x704 <NativeBrikInvoke+0x236>
     5a8:	2f e0       	ldi	r18, 0x0F	; 15
     5aa:	26 9f       	mul	r18, r22
     5ac:	f0 01       	movw	r30, r0
     5ae:	27 9f       	mul	r18, r23
     5b0:	f0 0d       	add	r31, r0
     5b2:	11 24       	eor	r1, r1
     5b4:	e2 5c       	subi	r30, 0xC2	; 194
     5b6:	fe 4f       	sbci	r31, 0xFE	; 254
     5b8:	81 e0       	ldi	r24, 0x01	; 1
     5ba:	81 83       	std	Z+1, r24	; 0x01
     5bc:	a4 81       	ldd	r26, Z+4	; 0x04
     5be:	b5 81       	ldd	r27, Z+5	; 0x05
     5c0:	8c 91       	ld	r24, X
     5c2:	96 85       	ldd	r25, Z+14	; 0x0e
     5c4:	89 2b       	or	r24, r25
     5c6:	8c 93       	st	X, r24
     5c8:	a6 81       	ldd	r26, Z+6	; 0x06
     5ca:	b7 81       	ldd	r27, Z+7	; 0x07
     5cc:	96 85       	ldd	r25, Z+14	; 0x0e
     5ce:	90 95       	com	r25
     5d0:	8c 91       	ld	r24, X
     5d2:	89 23       	and	r24, r25
     5d4:	33 c0       	rjmp	.+102    	; 0x63c <NativeBrikInvoke+0x16e>
     5d6:	6b 01       	movw	r12, r22
     5d8:	7c 01       	movw	r14, r24
     5da:	26 e0       	ldi	r18, 0x06	; 6
     5dc:	c2 1a       	sub	r12, r18
     5de:	d1 08       	sbc	r13, r1
     5e0:	e1 08       	sbc	r14, r1
     5e2:	f1 08       	sbc	r15, r1
     5e4:	2e e0       	ldi	r18, 0x0E	; 14
     5e6:	c2 16       	cp	r12, r18
     5e8:	d1 04       	cpc	r13, r1
     5ea:	e1 04       	cpc	r14, r1
     5ec:	f1 04       	cpc	r15, r1
     5ee:	08 f0       	brcs	.+2      	; 0x5f2 <NativeBrikInvoke+0x124>
     5f0:	89 c0       	rjmp	.+274    	; 0x704 <NativeBrikInvoke+0x236>
     5f2:	2f e0       	ldi	r18, 0x0F	; 15
     5f4:	26 9f       	mul	r18, r22
     5f6:	f0 01       	movw	r30, r0
     5f8:	27 9f       	mul	r18, r23
     5fa:	f0 0d       	add	r31, r0
     5fc:	11 24       	eor	r1, r1
     5fe:	e2 5c       	subi	r30, 0xC2	; 194
     600:	fe 4f       	sbci	r31, 0xFE	; 254
     602:	11 82       	std	Z+1, r1	; 0x01
     604:	a4 81       	ldd	r26, Z+4	; 0x04
     606:	b5 81       	ldd	r27, Z+5	; 0x05
     608:	96 85       	ldd	r25, Z+14	; 0x0e
     60a:	90 95       	com	r25
     60c:	8c 91       	ld	r24, X
     60e:	89 23       	and	r24, r25
     610:	da cf       	rjmp	.-76     	; 0x5c6 <NativeBrikInvoke+0xf8>
     612:	66 30       	cpi	r22, 0x06	; 6
     614:	71 05       	cpc	r23, r1
     616:	81 05       	cpc	r24, r1
     618:	91 05       	cpc	r25, r1
     61a:	08 f0       	brcs	.+2      	; 0x61e <NativeBrikInvoke+0x150>
     61c:	73 c0       	rjmp	.+230    	; 0x704 <NativeBrikInvoke+0x236>
     61e:	2f e0       	ldi	r18, 0x0F	; 15
     620:	26 9f       	mul	r18, r22
     622:	f0 01       	movw	r30, r0
     624:	27 9f       	mul	r18, r23
     626:	f0 0d       	add	r31, r0
     628:	11 24       	eor	r1, r1
     62a:	e2 5c       	subi	r30, 0xC2	; 194
     62c:	fe 4f       	sbci	r31, 0xFE	; 254
     62e:	83 e0       	ldi	r24, 0x03	; 3
     630:	81 83       	std	Z+1, r24	; 0x01
     632:	a6 81       	ldd	r26, Z+6	; 0x06
     634:	b7 81       	ldd	r27, Z+7	; 0x07
     636:	8c 91       	ld	r24, X
     638:	96 85       	ldd	r25, Z+14	; 0x0e
     63a:	89 2b       	or	r24, r25
     63c:	8c 93       	st	X, r24
     63e:	a3 85       	ldd	r26, Z+11	; 0x0b
     640:	b4 85       	ldd	r27, Z+12	; 0x0c
     642:	8c 91       	ld	r24, X
     644:	95 85       	ldd	r25, Z+13	; 0x0d
     646:	51 c0       	rjmp	.+162    	; 0x6ea <NativeBrikInvoke+0x21c>
     648:	6b 01       	movw	r12, r22
     64a:	7c 01       	movw	r14, r24
     64c:	24 e1       	ldi	r18, 0x14	; 20
     64e:	c2 1a       	sub	r12, r18
     650:	d1 08       	sbc	r13, r1
     652:	e1 08       	sbc	r14, r1
     654:	f1 08       	sbc	r15, r1
     656:	22 e0       	ldi	r18, 0x02	; 2
     658:	c2 16       	cp	r12, r18
     65a:	d1 04       	cpc	r13, r1
     65c:	e1 04       	cpc	r14, r1
     65e:	f1 04       	cpc	r15, r1
     660:	08 f0       	brcs	.+2      	; 0x664 <NativeBrikInvoke+0x196>
     662:	50 c0       	rjmp	.+160    	; 0x704 <NativeBrikInvoke+0x236>
     664:	2f e0       	ldi	r18, 0x0F	; 15
     666:	26 9f       	mul	r18, r22
     668:	f0 01       	movw	r30, r0
     66a:	27 9f       	mul	r18, r23
     66c:	f0 0d       	add	r31, r0
     66e:	11 24       	eor	r1, r1
     670:	e2 5c       	subi	r30, 0xC2	; 194
     672:	fe 4f       	sbci	r31, 0xFE	; 254
     674:	84 e0       	ldi	r24, 0x04	; 4
     676:	2d c0       	rjmp	.+90     	; 0x6d2 <NativeBrikInvoke+0x204>
     678:	6b 01       	movw	r12, r22
     67a:	7c 01       	movw	r14, r24
     67c:	26 e1       	ldi	r18, 0x16	; 22
     67e:	c2 1a       	sub	r12, r18
     680:	d1 08       	sbc	r13, r1
     682:	e1 08       	sbc	r14, r1
     684:	f1 08       	sbc	r15, r1
     686:	26 e0       	ldi	r18, 0x06	; 6
     688:	c2 16       	cp	r12, r18
     68a:	d1 04       	cpc	r13, r1
     68c:	e1 04       	cpc	r14, r1
     68e:	f1 04       	cpc	r15, r1
     690:	c8 f5       	brcc	.+114    	; 0x704 <NativeBrikInvoke+0x236>
     692:	2f e0       	ldi	r18, 0x0F	; 15
     694:	26 9f       	mul	r18, r22
     696:	f0 01       	movw	r30, r0
     698:	27 9f       	mul	r18, r23
     69a:	f0 0d       	add	r31, r0
     69c:	11 24       	eor	r1, r1
     69e:	e2 5c       	subi	r30, 0xC2	; 194
     6a0:	fe 4f       	sbci	r31, 0xFE	; 254
     6a2:	86 e0       	ldi	r24, 0x06	; 6
     6a4:	16 c0       	rjmp	.+44     	; 0x6d2 <NativeBrikInvoke+0x204>
     6a6:	6b 01       	movw	r12, r22
     6a8:	7c 01       	movw	r14, r24
     6aa:	20 e2       	ldi	r18, 0x20	; 32
     6ac:	c2 1a       	sub	r12, r18
     6ae:	d1 08       	sbc	r13, r1
     6b0:	e1 08       	sbc	r14, r1
     6b2:	f1 08       	sbc	r15, r1
     6b4:	24 e0       	ldi	r18, 0x04	; 4
     6b6:	c2 16       	cp	r12, r18
     6b8:	d1 04       	cpc	r13, r1
     6ba:	e1 04       	cpc	r14, r1
     6bc:	f1 04       	cpc	r15, r1
     6be:	10 f5       	brcc	.+68     	; 0x704 <NativeBrikInvoke+0x236>
     6c0:	2f e0       	ldi	r18, 0x0F	; 15
     6c2:	26 9f       	mul	r18, r22
     6c4:	f0 01       	movw	r30, r0
     6c6:	27 9f       	mul	r18, r23
     6c8:	f0 0d       	add	r31, r0
     6ca:	11 24       	eor	r1, r1
     6cc:	e2 5c       	subi	r30, 0xC2	; 194
     6ce:	fe 4f       	sbci	r31, 0xFE	; 254
     6d0:	85 e0       	ldi	r24, 0x05	; 5
     6d2:	81 83       	std	Z+1, r24	; 0x01
     6d4:	a3 85       	ldd	r26, Z+11	; 0x0b
     6d6:	b4 85       	ldd	r27, Z+12	; 0x0c
     6d8:	95 85       	ldd	r25, Z+13	; 0x0d
     6da:	90 95       	com	r25
     6dc:	8c 91       	ld	r24, X
     6de:	89 23       	and	r24, r25
     6e0:	8c 93       	st	X, r24
     6e2:	a0 85       	ldd	r26, Z+8	; 0x08
     6e4:	b1 85       	ldd	r27, Z+9	; 0x09
     6e6:	8c 91       	ld	r24, X
     6e8:	92 85       	ldd	r25, Z+10	; 0x0a
     6ea:	89 2b       	or	r24, r25
     6ec:	8c 93       	st	X, r24
     6ee:	0a c0       	rjmp	.+20     	; 0x704 <NativeBrikInvoke+0x236>
     6f0:	0e 94 96 0e 	call	0x1d2c	; 0x1d2c <StackPopInt>
     6f4:	0e 94 96 0e 	call	0x1d2c	; 0x1d2c <StackPopInt>
     6f8:	ff 90       	pop	r15
     6fa:	ef 90       	pop	r14
     6fc:	df 90       	pop	r13
     6fe:	cf 90       	pop	r12
     700:	0c 94 96 0e 	jmp	0x1d2c	; 0x1d2c <StackPopInt>
     704:	ff 90       	pop	r15
     706:	ef 90       	pop	r14
     708:	df 90       	pop	r13
     70a:	cf 90       	pop	r12
     70c:	08 95       	ret

0000070e <Handle1MsInterrupt>:
     70e:	e1 e5       	ldi	r30, 0x51	; 81
     710:	f1 e1       	ldi	r31, 0x11	; 17
     712:	80 81       	ld	r24, Z
     714:	91 81       	ldd	r25, Z+1	; 0x01
     716:	01 96       	adiw	r24, 0x01	; 1
     718:	81 93       	st	Z+, r24
     71a:	91 93       	st	Z+, r25
     71c:	81 e1       	ldi	r24, 0x11	; 17
     71e:	e9 35       	cpi	r30, 0x59	; 89
     720:	f8 07       	cpc	r31, r24
     722:	b9 f7       	brne	.-18     	; 0x712 <Handle1MsInterrupt+0x4>
     724:	08 95       	ret

00000726 <InvokeJavaObjectMethod>:
     726:	81 11       	cpse	r24, r1
     728:	02 c0       	rjmp	.+4      	; 0x72e <InvokeJavaObjectMethod+0x8>
     72a:	0c 94 87 0e 	jmp	0x1d0e	; 0x1d0e <StackPop>
     72e:	8a e0       	ldi	r24, 0x0A	; 10
     730:	0c 94 3c 0a 	jmp	0x1478	; 0x1478 <HandleError>

00000734 <WaitMsec>:
     734:	10 92 52 11 	sts	0x1152, r1
     738:	10 92 51 11 	sts	0x1151, r1
     73c:	89 2b       	or	r24, r25
     73e:	09 f0       	breq	.+2      	; 0x742 <WaitMsec+0xe>
     740:	ff cf       	rjmp	.-2      	; 0x740 <WaitMsec+0xc>
     742:	08 95       	ret

00000744 <CreateNewNativeObject>:
     744:	cf 93       	push	r28
     746:	df 93       	push	r29
     748:	29 2f       	mov	r18, r25
     74a:	30 e0       	ldi	r19, 0x00	; 0
     74c:	24 31       	cpi	r18, 0x14	; 20
     74e:	31 05       	cpc	r19, r1
     750:	69 f4       	brne	.+26     	; 0x76c <CreateNewNativeObject+0x28>
     752:	61 e0       	ldi	r22, 0x01	; 1
     754:	70 e0       	ldi	r23, 0x00	; 0
     756:	80 e0       	ldi	r24, 0x00	; 0
     758:	0e 94 7d 0d 	call	0x1afa	; 0x1afa <HeapAlloc>
     75c:	ec 01       	movw	r28, r24
     75e:	bc 01       	movw	r22, r24
     760:	80 e0       	ldi	r24, 0x00	; 0
     762:	90 e0       	ldi	r25, 0x00	; 0
     764:	90 68       	ori	r25, 0x80	; 128
     766:	0e 94 77 0e 	call	0x1cee	; 0x1cee <StackPush>
     76a:	03 c0       	rjmp	.+6      	; 0x772 <CreateNewNativeObject+0x2e>
     76c:	8b e0       	ldi	r24, 0x0B	; 11
     76e:	0e 94 3c 0a 	call	0x1478	; 0x1478 <HandleError>
     772:	ce 01       	movw	r24, r28
     774:	df 91       	pop	r29
     776:	cf 91       	pop	r28
     778:	08 95       	ret

0000077a <InvokeNativeMethod>:
     77a:	29 2f       	mov	r18, r25
     77c:	30 e0       	ldi	r19, 0x00	; 0
     77e:	20 31       	cpi	r18, 0x10	; 16
     780:	31 05       	cpc	r19, r1
     782:	29 f0       	breq	.+10     	; 0x78e <InvokeNativeMethod+0x14>
     784:	2f 31       	cpi	r18, 0x1F	; 31
     786:	31 05       	cpc	r19, r1
     788:	21 f4       	brne	.+8      	; 0x792 <InvokeNativeMethod+0x18>
     78a:	0c 94 67 02 	jmp	0x4ce	; 0x4ce <NativeBrikInvoke>
     78e:	0c 94 93 03 	jmp	0x726	; 0x726 <InvokeJavaObjectMethod>
     792:	8b e0       	ldi	r24, 0x0B	; 11
     794:	0c 94 3c 0a 	jmp	0x1478	; 0x1478 <HandleError>

00000798 <NativeInitialize>:
     798:	0e 94 66 02 	call	0x4cc	; 0x4cc <InitializeMicroAPI>
     79c:	82 e0       	ldi	r24, 0x02	; 2
     79e:	0c 94 e4 03 	jmp	0x7c8	; 0x7c8 <InitializeUart>

000007a2 <PlatformInitialize>:
     7a2:	08 95       	ret

000007a4 <PlatformError>:
     7a4:	08 95       	ret

000007a6 <UartSendByte>:
     7a6:	0c 94 57 01 	jmp	0x2ae	; 0x2ae <uart_putc>

000007aa <UartBytesAvailable>:
     7aa:	0e 94 7e 01 	call	0x2fc	; 0x2fc <uart_hasData>
     7ae:	90 e0       	ldi	r25, 0x00	; 0
     7b0:	08 95       	ret

000007b2 <UartReadByte>:
     7b2:	0c 94 64 01 	jmp	0x2c8	; 0x2c8 <uart_getc>

000007b6 <UartFlush>:
     7b6:	10 92 db 11 	sts	0x11DB, r1
     7ba:	10 92 5a 11 	sts	0x115A, r1
     7be:	10 92 59 11 	sts	0x1159, r1
     7c2:	10 92 dc 11 	sts	0x11DC, r1
     7c6:	08 95       	ret

000007c8 <InitializeUart>:
     7c8:	0e 94 1b 01 	call	0x236	; 0x236 <uart_init>
     7cc:	81 e0       	ldi	r24, 0x01	; 1
     7ce:	08 95       	ret

000007d0 <UtilsCopyMemory>:
     7d0:	fb 01       	movw	r30, r22
     7d2:	46 0f       	add	r20, r22
     7d4:	57 1f       	adc	r21, r23
     7d6:	e4 17       	cp	r30, r20
     7d8:	f5 07       	cpc	r31, r21
     7da:	29 f0       	breq	.+10     	; 0x7e6 <UtilsCopyMemory+0x16>
     7dc:	21 91       	ld	r18, Z+
     7de:	dc 01       	movw	r26, r24
     7e0:	2d 93       	st	X+, r18
     7e2:	cd 01       	movw	r24, r26
     7e4:	f8 cf       	rjmp	.-16     	; 0x7d6 <UtilsCopyMemory+0x6>
     7e6:	08 95       	ret

000007e8 <UtilsGetStringLength>:
     7e8:	fc 01       	movw	r30, r24
     7ea:	9f 01       	movw	r18, r30
     7ec:	28 1b       	sub	r18, r24
     7ee:	39 0b       	sbc	r19, r25
     7f0:	41 91       	ld	r20, Z+
     7f2:	41 11       	cpse	r20, r1
     7f4:	fa cf       	rjmp	.-12     	; 0x7ea <UtilsGetStringLength+0x2>
     7f6:	c9 01       	movw	r24, r18
     7f8:	08 95       	ret

000007fa <VmInitialize>:
     7fa:	0e 94 16 0d 	call	0x1a2c	; 0x1a2c <HeapInitialize>
     7fe:	0e 94 aa 0b 	call	0x1754	; 0x1754 <VmFileGetStaticFieldCount>
     802:	0e 94 4d 0e 	call	0x1c9a	; 0x1c9a <StackInitialize>
     806:	60 e0       	ldi	r22, 0x00	; 0
     808:	70 e0       	ldi	r23, 0x00	; 0
     80a:	cb 01       	movw	r24, r22
     80c:	0c 94 77 0e 	jmp	0x1cee	; 0x1cee <StackPush>

00000810 <VmGetAddress>:
     810:	cf 92       	push	r12
     812:	df 92       	push	r13
     814:	ef 92       	push	r14
     816:	ff 92       	push	r15
     818:	6b 01       	movw	r12, r22
     81a:	7c 01       	movw	r14, r24
     81c:	97 fd       	sbrc	r25, 7
     81e:	03 c0       	rjmp	.+6      	; 0x826 <VmGetAddress+0x16>
     820:	81 e1       	ldi	r24, 0x11	; 17
     822:	0e 94 3c 0a 	call	0x1478	; 0x1478 <HandleError>
     826:	d7 01       	movw	r26, r14
     828:	c6 01       	movw	r24, r12
     82a:	88 27       	eor	r24, r24
     82c:	99 27       	eor	r25, r25
     82e:	aa 27       	eor	r26, r26
     830:	b0 7c       	andi	r27, 0xC0	; 192
     832:	00 97       	sbiw	r24, 0x00	; 0
     834:	a1 05       	cpc	r26, r1
     836:	b0 48       	sbci	r27, 0x80	; 128
     838:	39 f4       	brne	.+14     	; 0x848 <VmGetAddress+0x38>
     83a:	c6 01       	movw	r24, r12
     83c:	ff 90       	pop	r15
     83e:	ef 90       	pop	r14
     840:	df 90       	pop	r13
     842:	cf 90       	pop	r12
     844:	0c 94 07 0d 	jmp	0x1a0e	; 0x1a0e <HeapGetAddress>
     848:	c6 01       	movw	r24, r12
     84a:	0e 94 89 0b 	call	0x1712	; 0x1712 <VmFileGetAddress>
     84e:	90 68       	ori	r25, 0x80	; 128
     850:	ff 90       	pop	r15
     852:	ef 90       	pop	r14
     854:	df 90       	pop	r13
     856:	cf 90       	pop	r12
     858:	08 95       	ret

0000085a <VmStackToInt>:
     85a:	96 fd       	sbrc	r25, 6
     85c:	90 68       	ori	r25, 0x80	; 128
     85e:	08 95       	ret

00000860 <VmNewClass>:
     860:	0f 93       	push	r16
     862:	1f 93       	push	r17
     864:	cf 93       	push	r28
     866:	df 93       	push	r29
     868:	8c 01       	movw	r16, r24
     86a:	81 2f       	mov	r24, r17
     86c:	99 27       	eor	r25, r25
     86e:	80 31       	cpi	r24, 0x10	; 16
     870:	91 05       	cpc	r25, r1
     872:	38 f0       	brcs	.+14     	; 0x882 <VmNewClass+0x22>
     874:	c8 01       	movw	r24, r16
     876:	df 91       	pop	r29
     878:	cf 91       	pop	r28
     87a:	1f 91       	pop	r17
     87c:	0f 91       	pop	r16
     87e:	0c 94 a2 03 	jmp	0x744	; 0x744 <CreateNewNativeObject>
     882:	0e 94 a3 0b 	call	0x1746	; 0x1746 <VmFileGetClassFieldCount>
     886:	90 e1       	ldi	r25, 0x10	; 16
     888:	89 9f       	mul	r24, r25
     88a:	b0 01       	movw	r22, r0
     88c:	11 24       	eor	r1, r1
     88e:	6c 5f       	subi	r22, 0xFC	; 252
     890:	7f 4f       	sbci	r23, 0xFF	; 255
     892:	81 e0       	ldi	r24, 0x01	; 1
     894:	0e 94 7d 0d 	call	0x1afa	; 0x1afa <HeapAlloc>
     898:	ec 01       	movw	r28, r24
     89a:	bc 01       	movw	r22, r24
     89c:	80 e0       	ldi	r24, 0x00	; 0
     89e:	90 e0       	ldi	r25, 0x00	; 0
     8a0:	90 68       	ori	r25, 0x80	; 128
     8a2:	0e 94 77 0e 	call	0x1cee	; 0x1cee <StackPush>
     8a6:	ce 01       	movw	r24, r28
     8a8:	0e 94 07 0d 	call	0x1a0e	; 0x1a0e <HeapGetAddress>
     8ac:	a8 01       	movw	r20, r16
     8ae:	60 e0       	ldi	r22, 0x00	; 0
     8b0:	70 e0       	ldi	r23, 0x00	; 0
     8b2:	fc 01       	movw	r30, r24
     8b4:	40 83       	st	Z, r20
     8b6:	51 83       	std	Z+1, r21	; 0x01
     8b8:	62 83       	std	Z+2, r22	; 0x02
     8ba:	73 83       	std	Z+3, r23	; 0x03
     8bc:	ce 01       	movw	r24, r28
     8be:	df 91       	pop	r29
     8c0:	cf 91       	pop	r28
     8c2:	1f 91       	pop	r17
     8c4:	0f 91       	pop	r16
     8c6:	08 95       	ret

000008c8 <VmRunMethod>:
     8c8:	2f 92       	push	r2
     8ca:	3f 92       	push	r3
     8cc:	4f 92       	push	r4
     8ce:	5f 92       	push	r5
     8d0:	6f 92       	push	r6
     8d2:	7f 92       	push	r7
     8d4:	8f 92       	push	r8
     8d6:	9f 92       	push	r9
     8d8:	af 92       	push	r10
     8da:	bf 92       	push	r11
     8dc:	cf 92       	push	r12
     8de:	df 92       	push	r13
     8e0:	ef 92       	push	r14
     8e2:	ff 92       	push	r15
     8e4:	0f 93       	push	r16
     8e6:	1f 93       	push	r17
     8e8:	cf 93       	push	r28
     8ea:	df 93       	push	r29
     8ec:	cd b7       	in	r28, 0x3d	; 61
     8ee:	de b7       	in	r29, 0x3e	; 62
     8f0:	63 97       	sbiw	r28, 0x13	; 19
     8f2:	0f b6       	in	r0, 0x3f	; 63
     8f4:	f8 94       	cli
     8f6:	de bf       	out	0x3e, r29	; 62
     8f8:	0f be       	out	0x3f, r0	; 63
     8fa:	cd bf       	out	0x3d, r28	; 61
     8fc:	9d 87       	std	Y+13, r25	; 0x0d
     8fe:	8c 87       	std	Y+12, r24	; 0x0c
     900:	0e 94 df 0a 	call	0x15be	; 0x15be <VmFileGetMethodHeader>
     904:	9b 87       	std	Y+11, r25	; 0x0b
     906:	8a 87       	std	Y+10, r24	; 0x0a
     908:	48 e0       	ldi	r20, 0x08	; 8
     90a:	50 e0       	ldi	r21, 0x00	; 0
     90c:	bc 01       	movw	r22, r24
     90e:	ce 01       	movw	r24, r28
     910:	01 96       	adiw	r24, 0x01	; 1
     912:	0e 94 61 0a 	call	0x14c2	; 0x14c2 <VmFileRead>
     916:	29 80       	ldd	r2, Y+1	; 0x01
     918:	3a 80       	ldd	r3, Y+2	; 0x02
     91a:	2a 85       	ldd	r18, Y+10	; 0x0a
     91c:	3b 85       	ldd	r19, Y+11	; 0x0b
     91e:	22 0e       	add	r2, r18
     920:	33 1e       	adc	r3, r19
     922:	2f 81       	ldd	r18, Y+7	; 0x07
     924:	88 85       	ldd	r24, Y+8	; 0x08
     926:	90 e0       	ldi	r25, 0x00	; 0
     928:	82 0f       	add	r24, r18
     92a:	91 1d       	adc	r25, r1
     92c:	2e 81       	ldd	r18, Y+6	; 0x06
     92e:	82 0f       	add	r24, r18
     930:	91 1d       	adc	r25, r1
     932:	88 0f       	add	r24, r24
     934:	99 1f       	adc	r25, r25
     936:	88 0f       	add	r24, r24
     938:	99 1f       	adc	r25, r25
     93a:	0e 94 db 0d 	call	0x1bb6	; 0x1bb6 <HeapSteal>
     93e:	0e 94 f0 0e 	call	0x1de0	; 0x1de0 <GetStackPointer>
     942:	90 93 de 11 	sts	0x11DE, r25
     946:	80 93 dd 11 	sts	0x11DD, r24
     94a:	8f 81       	ldd	r24, Y+7	; 0x07
     94c:	81 50       	subi	r24, 0x01	; 1
     94e:	0e 94 e2 0e 	call	0x1dc4	; 0x1dc4 <StackAddToSp>
     952:	0e 94 13 0f 	call	0x1e26	; 0x1e26 <StackSaveBase>
     956:	c1 2c       	mov	r12, r1
     958:	d1 2c       	mov	r13, r1
     95a:	76 01       	movw	r14, r12
     95c:	c1 01       	movw	r24, r2
     95e:	0e 94 64 0a 	call	0x14c8	; 0x14c8 <VmFileRead08>
     962:	89 87       	std	Y+9, r24	; 0x09
     964:	c1 01       	movw	r24, r2
     966:	01 96       	adiw	r24, 0x01	; 1
     968:	0e 94 64 0a 	call	0x14c8	; 0x14c8 <VmFileRead08>
     96c:	48 2f       	mov	r20, r24
     96e:	88 2e       	mov	r8, r24
     970:	c1 01       	movw	r24, r2
     972:	02 96       	adiw	r24, 0x02	; 2
     974:	4a 8b       	std	Y+18, r20	; 0x12
     976:	0e 94 64 0a 	call	0x14c8	; 0x14c8 <VmFileRead08>
     97a:	78 2e       	mov	r7, r24
     97c:	98 2e       	mov	r9, r24
     97e:	4a 89       	ldd	r20, Y+18	; 0x12
     980:	39 85       	ldd	r19, Y+9	; 0x09
     982:	3e 36       	cpi	r19, 0x6E	; 110
     984:	09 f4       	brne	.+2      	; 0x988 <__stack+0x89>
     986:	e7 c1       	rjmp	.+974    	; 0xd56 <__stack+0x457>
     988:	08 f0       	brcs	.+2      	; 0x98c <__stack+0x8d>
     98a:	96 c0       	rjmp	.+300    	; 0xab8 <__stack+0x1b9>
     98c:	3f 33       	cpi	r19, 0x3F	; 63
     98e:	08 f0       	brcs	.+2      	; 0x992 <__stack+0x93>
     990:	4c c0       	rjmp	.+152    	; 0xa2a <__stack+0x12b>
     992:	3b 33       	cpi	r19, 0x3B	; 59
     994:	08 f0       	brcs	.+2      	; 0x998 <__stack+0x99>
     996:	2a c1       	rjmp	.+596    	; 0xbec <__stack+0x2ed>
     998:	32 31       	cpi	r19, 0x12	; 18
     99a:	09 f4       	brne	.+2      	; 0x99e <__stack+0x9f>
     99c:	59 c3       	rjmp	.+1714   	; 0x1050 <__stack+0x751>
     99e:	b8 f4       	brcc	.+46     	; 0x9ce <__stack+0xcf>
     9a0:	39 30       	cpi	r19, 0x09	; 9
     9a2:	38 f4       	brcc	.+14     	; 0x9b2 <__stack+0xb3>
     9a4:	32 30       	cpi	r19, 0x02	; 2
     9a6:	08 f0       	brcs	.+2      	; 0x9aa <__stack+0xab>
     9a8:	05 c1       	rjmp	.+522    	; 0xbb4 <__stack+0x2b5>
     9aa:	33 23       	and	r19, r19
     9ac:	09 f4       	brne	.+2      	; 0x9b0 <__stack+0xb1>
     9ae:	4c c4       	rjmp	.+2200   	; 0x1248 <__stack+0x949>
     9b0:	48 c4       	rjmp	.+2192   	; 0x1242 <__stack+0x943>
     9b2:	89 85       	ldd	r24, Y+9	; 0x09
     9b4:	80 31       	cpi	r24, 0x10	; 16
     9b6:	09 f4       	brne	.+2      	; 0x9ba <__stack+0xbb>
     9b8:	f6 c0       	rjmp	.+492    	; 0xba6 <__stack+0x2a7>
     9ba:	81 31       	cpi	r24, 0x11	; 17
     9bc:	09 f0       	breq	.+2      	; 0x9c0 <__stack+0xc1>
     9be:	41 c4       	rjmp	.+2178   	; 0x1242 <__stack+0x943>
     9c0:	b4 01       	movw	r22, r8
     9c2:	88 27       	eor	r24, r24
     9c4:	77 fd       	sbrc	r23, 7
     9c6:	80 95       	com	r24
     9c8:	98 2f       	mov	r25, r24
     9ca:	9f 77       	andi	r25, 0x7F	; 127
     9cc:	35 c3       	rjmp	.+1642   	; 0x1038 <__stack+0x739>
     9ce:	99 85       	ldd	r25, Y+9	; 0x09
     9d0:	9e 31       	cpi	r25, 0x1E	; 30
     9d2:	a0 f4       	brcc	.+40     	; 0x9fc <__stack+0xfd>
     9d4:	9a 31       	cpi	r25, 0x1A	; 26
     9d6:	08 f0       	brcs	.+2      	; 0x9da <__stack+0xdb>
     9d8:	24 c1       	rjmp	.+584    	; 0xc22 <__stack+0x323>
     9da:	95 31       	cpi	r25, 0x15	; 21
     9dc:	09 f0       	breq	.+2      	; 0x9e0 <__stack+0xe1>
     9de:	31 c4       	rjmp	.+2146   	; 0x1242 <__stack+0x943>
     9e0:	e0 91 dd 11 	lds	r30, 0x11DD
     9e4:	f0 91 de 11 	lds	r31, 0x11DE
     9e8:	24 e0       	ldi	r18, 0x04	; 4
     9ea:	42 02       	muls	r20, r18
     9ec:	e0 0d       	add	r30, r0
     9ee:	f1 1d       	adc	r31, r1
     9f0:	11 24       	eor	r1, r1
     9f2:	60 81       	ld	r22, Z
     9f4:	71 81       	ldd	r23, Z+1	; 0x01
     9f6:	82 81       	ldd	r24, Z+2	; 0x02
     9f8:	93 81       	ldd	r25, Z+3	; 0x03
     9fa:	2d c3       	rjmp	.+1626   	; 0x1056 <__stack+0x757>
     9fc:	e9 85       	ldd	r30, Y+9	; 0x09
     9fe:	e3 33       	cpi	r30, 0x33	; 51
     a00:	09 f4       	brne	.+2      	; 0xa04 <__stack+0x105>
     a02:	0a c4       	rjmp	.+2068   	; 0x1218 <__stack+0x919>
     a04:	e6 33       	cpi	r30, 0x36	; 54
     a06:	09 f4       	brne	.+2      	; 0xa0a <__stack+0x10b>
     a08:	df c0       	rjmp	.+446    	; 0xbc8 <__stack+0x2c9>
     a0a:	ee 32       	cpi	r30, 0x2E	; 46
     a0c:	09 f0       	breq	.+2      	; 0xa10 <__stack+0x111>
     a0e:	19 c4       	rjmp	.+2098   	; 0x1242 <__stack+0x943>
     a10:	0e 94 96 0e 	call	0x1d2c	; 0x1d2c <StackPopInt>
     a14:	6b 01       	movw	r12, r22
     a16:	7c 01       	movw	r14, r24
     a18:	0e 94 87 0e 	call	0x1d0e	; 0x1d0e <StackPop>
     a1c:	dc 01       	movw	r26, r24
     a1e:	cb 01       	movw	r24, r22
     a20:	b7 01       	movw	r22, r14
     a22:	a6 01       	movw	r20, r12
     a24:	0e 94 1c 0a 	call	0x1438	; 0x1438 <ArrayGetIntValue>
     a28:	09 c4       	rjmp	.+2066   	; 0x123c <__stack+0x93d>
     a2a:	f9 85       	ldd	r31, Y+9	; 0x09
     a2c:	f0 36       	cpi	r31, 0x60	; 96
     a2e:	09 f4       	brne	.+2      	; 0xa32 <__stack+0x133>
     a30:	92 c1       	rjmp	.+804    	; 0xd56 <__stack+0x457>
     a32:	58 f5       	brcc	.+86     	; 0xa8a <__stack+0x18b>
     a34:	f7 35       	cpi	r31, 0x57	; 87
     a36:	09 f4       	brne	.+2      	; 0xa3a <__stack+0x13b>
     a38:	5d c2       	rjmp	.+1210   	; 0xef4 <__stack+0x5f5>
     a3a:	b8 f4       	brcc	.+46     	; 0xa6a <__stack+0x16b>
     a3c:	ff 34       	cpi	r31, 0x4F	; 79
     a3e:	09 f4       	brne	.+2      	; 0xa42 <__stack+0x143>
     a40:	d8 c3       	rjmp	.+1968   	; 0x11f2 <__stack+0x8f3>
     a42:	f4 35       	cpi	r31, 0x54	; 84
     a44:	09 f0       	breq	.+2      	; 0xa48 <__stack+0x149>
     a46:	fd c3       	rjmp	.+2042   	; 0x1242 <__stack+0x943>
     a48:	0e 94 96 0e 	call	0x1d2c	; 0x1d2c <StackPopInt>
     a4c:	6b 8b       	std	Y+19, r22	; 0x13
     a4e:	0e 94 96 0e 	call	0x1d2c	; 0x1d2c <StackPopInt>
     a52:	6b 01       	movw	r12, r22
     a54:	7c 01       	movw	r14, r24
     a56:	0e 94 87 0e 	call	0x1d0e	; 0x1d0e <StackPop>
     a5a:	dc 01       	movw	r26, r24
     a5c:	cb 01       	movw	r24, r22
     a5e:	2b 89       	ldd	r18, Y+19	; 0x13
     a60:	b7 01       	movw	r22, r14
     a62:	a6 01       	movw	r20, r12
     a64:	0e 94 b8 09 	call	0x1370	; 0x1370 <ArraySetByteValue>
     a68:	ef c3       	rjmp	.+2014   	; 0x1248 <__stack+0x949>
     a6a:	29 85       	ldd	r18, Y+9	; 0x09
     a6c:	29 35       	cpi	r18, 0x59	; 89
     a6e:	09 f4       	brne	.+2      	; 0xa72 <__stack+0x173>
     a70:	44 c2       	rjmp	.+1160   	; 0xefa <__stack+0x5fb>
     a72:	08 f4       	brcc	.+2      	; 0xa76 <__stack+0x177>
     a74:	3d c2       	rjmp	.+1146   	; 0xef0 <__stack+0x5f1>
     a76:	2c 35       	cpi	r18, 0x5C	; 92
     a78:	09 f0       	breq	.+2      	; 0xa7c <__stack+0x17d>
     a7a:	e3 c3       	rjmp	.+1990   	; 0x1242 <__stack+0x943>
     a7c:	81 e0       	ldi	r24, 0x01	; 1
     a7e:	0e 94 a6 0e 	call	0x1d4c	; 0x1d4c <StackPeek>
     a82:	0e 94 77 0e 	call	0x1cee	; 0x1cee <StackPush>
     a86:	81 e0       	ldi	r24, 0x01	; 1
     a88:	39 c2       	rjmp	.+1138   	; 0xefc <__stack+0x5fd>
     a8a:	39 85       	ldd	r19, Y+9	; 0x09
     a8c:	36 36       	cpi	r19, 0x66	; 102
     a8e:	09 f4       	brne	.+2      	; 0xa92 <__stack+0x193>
     a90:	62 c1       	rjmp	.+708    	; 0xd56 <__stack+0x457>
     a92:	38 f4       	brcc	.+14     	; 0xaa2 <__stack+0x1a3>
     a94:	32 36       	cpi	r19, 0x62	; 98
     a96:	09 f4       	brne	.+2      	; 0xa9a <__stack+0x19b>
     a98:	5e c1       	rjmp	.+700    	; 0xd56 <__stack+0x457>
     a9a:	34 36       	cpi	r19, 0x64	; 100
     a9c:	09 f0       	breq	.+2      	; 0xaa0 <__stack+0x1a1>
     a9e:	d1 c3       	rjmp	.+1954   	; 0x1242 <__stack+0x943>
     aa0:	5a c1       	rjmp	.+692    	; 0xd56 <__stack+0x457>
     aa2:	49 85       	ldd	r20, Y+9	; 0x09
     aa4:	4a 36       	cpi	r20, 0x6A	; 106
     aa6:	09 f4       	brne	.+2      	; 0xaaa <__stack+0x1ab>
     aa8:	56 c1       	rjmp	.+684    	; 0xd56 <__stack+0x457>
     aaa:	4c 36       	cpi	r20, 0x6C	; 108
     aac:	09 f4       	brne	.+2      	; 0xab0 <__stack+0x1b1>
     aae:	53 c1       	rjmp	.+678    	; 0xd56 <__stack+0x457>
     ab0:	48 36       	cpi	r20, 0x68	; 104
     ab2:	09 f0       	breq	.+2      	; 0xab6 <__stack+0x1b7>
     ab4:	c6 c3       	rjmp	.+1932   	; 0x1242 <__stack+0x943>
     ab6:	4f c1       	rjmp	.+670    	; 0xd56 <__stack+0x457>
     ab8:	89 85       	ldd	r24, Y+9	; 0x09
     aba:	87 3a       	cpi	r24, 0xA7	; 167
     abc:	09 f4       	brne	.+2      	; 0xac0 <__stack+0x1c1>
     abe:	19 c1       	rjmp	.+562    	; 0xcf2 <__stack+0x3f3>
     ac0:	90 f5       	brcc	.+100    	; 0xb26 <__stack+0x227>
     ac2:	8c 37       	cpi	r24, 0x7C	; 124
     ac4:	09 f4       	brne	.+2      	; 0xac8 <__stack+0x1c9>
     ac6:	47 c1       	rjmp	.+654    	; 0xd56 <__stack+0x457>
     ac8:	b0 f4       	brcc	.+44     	; 0xaf6 <__stack+0x1f7>
     aca:	84 37       	cpi	r24, 0x74	; 116
     acc:	09 f4       	brne	.+2      	; 0xad0 <__stack+0x1d1>
     ace:	16 c1       	rjmp	.+556    	; 0xcfc <__stack+0x3fd>
     ad0:	38 f4       	brcc	.+14     	; 0xae0 <__stack+0x1e1>
     ad2:	80 37       	cpi	r24, 0x70	; 112
     ad4:	09 f4       	brne	.+2      	; 0xad8 <__stack+0x1d9>
     ad6:	3f c1       	rjmp	.+638    	; 0xd56 <__stack+0x457>
     ad8:	82 37       	cpi	r24, 0x72	; 114
     ada:	09 f0       	breq	.+2      	; 0xade <__stack+0x1df>
     adc:	b2 c3       	rjmp	.+1892   	; 0x1242 <__stack+0x943>
     ade:	3b c1       	rjmp	.+630    	; 0xd56 <__stack+0x457>
     ae0:	99 85       	ldd	r25, Y+9	; 0x09
     ae2:	98 37       	cpi	r25, 0x78	; 120
     ae4:	09 f4       	brne	.+2      	; 0xae8 <__stack+0x1e9>
     ae6:	37 c1       	rjmp	.+622    	; 0xd56 <__stack+0x457>
     ae8:	9a 37       	cpi	r25, 0x7A	; 122
     aea:	09 f4       	brne	.+2      	; 0xaee <__stack+0x1ef>
     aec:	34 c1       	rjmp	.+616    	; 0xd56 <__stack+0x457>
     aee:	96 37       	cpi	r25, 0x76	; 118
     af0:	09 f0       	breq	.+2      	; 0xaf4 <__stack+0x1f5>
     af2:	a7 c3       	rjmp	.+1870   	; 0x1242 <__stack+0x943>
     af4:	30 c1       	rjmp	.+608    	; 0xd56 <__stack+0x457>
     af6:	e9 85       	ldd	r30, Y+9	; 0x09
     af8:	e2 38       	cpi	r30, 0x82	; 130
     afa:	09 f4       	brne	.+2      	; 0xafe <__stack+0x1ff>
     afc:	2c c1       	rjmp	.+600    	; 0xd56 <__stack+0x457>
     afe:	38 f4       	brcc	.+14     	; 0xb0e <__stack+0x20f>
     b00:	ee 37       	cpi	r30, 0x7E	; 126
     b02:	09 f4       	brne	.+2      	; 0xb06 <__stack+0x207>
     b04:	28 c1       	rjmp	.+592    	; 0xd56 <__stack+0x457>
     b06:	e0 38       	cpi	r30, 0x80	; 128
     b08:	09 f0       	breq	.+2      	; 0xb0c <__stack+0x20d>
     b0a:	9b c3       	rjmp	.+1846   	; 0x1242 <__stack+0x943>
     b0c:	24 c1       	rjmp	.+584    	; 0xd56 <__stack+0x457>
     b0e:	f9 85       	ldd	r31, Y+9	; 0x09
     b10:	f4 38       	cpi	r31, 0x84	; 132
     b12:	09 f4       	brne	.+2      	; 0xb16 <__stack+0x217>
     b14:	ff c0       	rjmp	.+510    	; 0xd14 <__stack+0x415>
     b16:	08 f4       	brcc	.+2      	; 0xb1a <__stack+0x21b>
     b18:	94 c3       	rjmp	.+1832   	; 0x1242 <__stack+0x943>
     b1a:	8f 2f       	mov	r24, r31
     b1c:	89 59       	subi	r24, 0x99	; 153
     b1e:	8c 30       	cpi	r24, 0x0C	; 12
     b20:	08 f4       	brcc	.+2      	; 0xb24 <__stack+0x225>
     b22:	93 c0       	rjmp	.+294    	; 0xc4a <__stack+0x34b>
     b24:	8e c3       	rjmp	.+1820   	; 0x1242 <__stack+0x943>
     b26:	29 85       	ldd	r18, Y+9	; 0x09
     b28:	24 3b       	cpi	r18, 0xB4	; 180
     b2a:	09 f4       	brne	.+2      	; 0xb2e <__stack+0x22f>
     b2c:	28 c3       	rjmp	.+1616   	; 0x117e <__stack+0x87f>
     b2e:	30 f5       	brcc	.+76     	; 0xb7c <__stack+0x27d>
     b30:	2c 3a       	cpi	r18, 0xAC	; 172
     b32:	09 f4       	brne	.+2      	; 0xb36 <__stack+0x237>
     b34:	9a c1       	rjmp	.+820    	; 0xe6a <__stack+0x56b>
     b36:	c0 f4       	brcc	.+48     	; 0xb68 <__stack+0x269>
     b38:	2a 3a       	cpi	r18, 0xAA	; 170
     b3a:	09 f4       	brne	.+2      	; 0xb3e <__stack+0x23f>
     b3c:	e2 c1       	rjmp	.+964    	; 0xf02 <__stack+0x603>
     b3e:	2b 3a       	cpi	r18, 0xAB	; 171
     b40:	09 f0       	breq	.+2      	; 0xb44 <__stack+0x245>
     b42:	7f c3       	rjmp	.+1790   	; 0x1242 <__stack+0x943>
     b44:	c1 01       	movw	r24, r2
     b46:	08 96       	adiw	r24, 0x08	; 8
     b48:	0e 94 64 0a 	call	0x14c8	; 0x14c8 <VmFileRead08>
     b4c:	58 2e       	mov	r5, r24
     b4e:	79 e0       	ldi	r23, 0x09	; 9
     b50:	87 2e       	mov	r8, r23
     b52:	91 2c       	mov	r9, r1
     b54:	a1 2c       	mov	r10, r1
     b56:	b1 2c       	mov	r11, r1
     b58:	0e 94 96 0e 	call	0x1d2c	; 0x1d2c <StackPopInt>
     b5c:	6b 01       	movw	r12, r22
     b5e:	7c 01       	movw	r14, r24
     b60:	4f 2c       	mov	r4, r15
     b62:	0e 2d       	mov	r16, r14
     b64:	1d 2d       	mov	r17, r13
     b66:	2b c2       	rjmp	.+1110   	; 0xfbe <__stack+0x6bf>
     b68:	39 85       	ldd	r19, Y+9	; 0x09
     b6a:	32 3b       	cpi	r19, 0xB2	; 178
     b6c:	09 f4       	brne	.+2      	; 0xb70 <__stack+0x271>
     b6e:	61 c2       	rjmp	.+1218   	; 0x1032 <__stack+0x733>
     b70:	08 f0       	brcs	.+2      	; 0xb74 <__stack+0x275>
     b72:	66 c2       	rjmp	.+1228   	; 0x1040 <__stack+0x741>
     b74:	31 3b       	cpi	r19, 0xB1	; 177
     b76:	09 f4       	brne	.+2      	; 0xb7a <__stack+0x27b>
     b78:	7c c1       	rjmp	.+760    	; 0xe72 <__stack+0x573>
     b7a:	63 c3       	rjmp	.+1734   	; 0x1242 <__stack+0x943>
     b7c:	89 85       	ldd	r24, Y+9	; 0x09
     b7e:	89 3b       	cpi	r24, 0xB9	; 185
     b80:	20 f4       	brcc	.+8      	; 0xb8a <__stack+0x28b>
     b82:	86 3b       	cpi	r24, 0xB6	; 182
     b84:	08 f4       	brcc	.+2      	; 0xb88 <__stack+0x289>
     b86:	0e c3       	rjmp	.+1564   	; 0x11a4 <__stack+0x8a5>
     b88:	69 c2       	rjmp	.+1234   	; 0x105c <__stack+0x75d>
     b8a:	99 85       	ldd	r25, Y+9	; 0x09
     b8c:	9c 3b       	cpi	r25, 0xBC	; 188
     b8e:	09 f4       	brne	.+2      	; 0xb92 <__stack+0x293>
     b90:	1f c3       	rjmp	.+1598   	; 0x11d0 <__stack+0x8d1>
     b92:	9e 3b       	cpi	r25, 0xBE	; 190
     b94:	09 f4       	brne	.+2      	; 0xb98 <__stack+0x299>
     b96:	27 c3       	rjmp	.+1614   	; 0x11e6 <__stack+0x8e7>
     b98:	9b 3b       	cpi	r25, 0xBB	; 187
     b9a:	09 f0       	breq	.+2      	; 0xb9e <__stack+0x29f>
     b9c:	52 c3       	rjmp	.+1700   	; 0x1242 <__stack+0x943>
     b9e:	c4 01       	movw	r24, r8
     ba0:	0e 94 30 04 	call	0x860	; 0x860 <VmNewClass>
     ba4:	4b c2       	rjmp	.+1174   	; 0x103c <__stack+0x73d>
     ba6:	64 2f       	mov	r22, r20
     ba8:	77 27       	eor	r23, r23
     baa:	67 fd       	sbrc	r22, 7
     bac:	70 95       	com	r23
     bae:	87 2f       	mov	r24, r23
     bb0:	97 2f       	mov	r25, r23
     bb2:	51 c2       	rjmp	.+1186   	; 0x1056 <__stack+0x757>
     bb4:	e9 85       	ldd	r30, Y+9	; 0x09
     bb6:	6e 2f       	mov	r22, r30
     bb8:	70 e0       	ldi	r23, 0x00	; 0
     bba:	63 50       	subi	r22, 0x03	; 3
     bbc:	71 09       	sbc	r23, r1
     bbe:	88 27       	eor	r24, r24
     bc0:	77 fd       	sbrc	r23, 7
     bc2:	80 95       	com	r24
     bc4:	98 2f       	mov	r25, r24
     bc6:	3a c3       	rjmp	.+1652   	; 0x123c <__stack+0x93d>
     bc8:	00 91 dd 11 	lds	r16, 0x11DD
     bcc:	10 91 de 11 	lds	r17, 0x11DE
     bd0:	f4 e0       	ldi	r31, 0x04	; 4
     bd2:	4f 02       	muls	r20, r31
     bd4:	00 0d       	add	r16, r0
     bd6:	11 1d       	adc	r17, r1
     bd8:	11 24       	eor	r1, r1
     bda:	0e 94 87 0e 	call	0x1d0e	; 0x1d0e <StackPop>
     bde:	f8 01       	movw	r30, r16
     be0:	60 83       	st	Z, r22
     be2:	71 83       	std	Z+1, r23	; 0x01
     be4:	82 83       	std	Z+2, r24	; 0x02
     be6:	93 83       	std	Z+3, r25	; 0x03
     be8:	82 e0       	ldi	r24, 0x02	; 2
     bea:	32 c3       	rjmp	.+1636   	; 0x1250 <__stack+0x951>
     bec:	0e 94 87 0e 	call	0x1d0e	; 0x1d0e <StackPop>
     bf0:	f9 85       	ldd	r31, Y+9	; 0x09
     bf2:	2f 2f       	mov	r18, r31
     bf4:	30 e0       	ldi	r19, 0x00	; 0
     bf6:	2b 53       	subi	r18, 0x3B	; 59
     bf8:	31 09       	sbc	r19, r1
     bfa:	69 01       	movw	r12, r18
     bfc:	ee 24       	eor	r14, r14
     bfe:	d7 fc       	sbrc	r13, 7
     c00:	e0 94       	com	r14
     c02:	fe 2c       	mov	r15, r14
     c04:	22 0f       	add	r18, r18
     c06:	33 1f       	adc	r19, r19
     c08:	22 0f       	add	r18, r18
     c0a:	33 1f       	adc	r19, r19
     c0c:	e0 91 dd 11 	lds	r30, 0x11DD
     c10:	f0 91 de 11 	lds	r31, 0x11DE
     c14:	e2 0f       	add	r30, r18
     c16:	f3 1f       	adc	r31, r19
     c18:	60 83       	st	Z, r22
     c1a:	71 83       	std	Z+1, r23	; 0x01
     c1c:	82 83       	std	Z+2, r24	; 0x02
     c1e:	93 83       	std	Z+3, r25	; 0x03
     c20:	13 c3       	rjmp	.+1574   	; 0x1248 <__stack+0x949>
     c22:	39 85       	ldd	r19, Y+9	; 0x09
     c24:	83 2f       	mov	r24, r19
     c26:	90 e0       	ldi	r25, 0x00	; 0
     c28:	8a 51       	subi	r24, 0x1A	; 26
     c2a:	90 4c       	sbci	r25, 0xC0	; 192
     c2c:	88 0f       	add	r24, r24
     c2e:	99 1f       	adc	r25, r25
     c30:	88 0f       	add	r24, r24
     c32:	99 1f       	adc	r25, r25
     c34:	e0 91 dd 11 	lds	r30, 0x11DD
     c38:	f0 91 de 11 	lds	r31, 0x11DE
     c3c:	e8 0f       	add	r30, r24
     c3e:	f9 1f       	adc	r31, r25
     c40:	60 81       	ld	r22, Z
     c42:	71 81       	ldd	r23, Z+1	; 0x01
     c44:	82 81       	ldd	r24, Z+2	; 0x02
     c46:	93 81       	ldd	r25, Z+3	; 0x03
     c48:	f9 c2       	rjmp	.+1522   	; 0x123c <__stack+0x93d>
     c4a:	86 30       	cpi	r24, 0x06	; 6
     c4c:	38 f4       	brcc	.+14     	; 0xc5c <__stack+0x35d>
     c4e:	49 85       	ldd	r20, Y+9	; 0x09
     c50:	4a 5f       	subi	r20, 0xFA	; 250
     c52:	49 87       	std	Y+9, r20	; 0x09
     c54:	41 2c       	mov	r4, r1
     c56:	51 2c       	mov	r5, r1
     c58:	32 01       	movw	r6, r4
     c5a:	04 c0       	rjmp	.+8      	; 0xc64 <__stack+0x365>
     c5c:	0e 94 96 0e 	call	0x1d2c	; 0x1d2c <StackPopInt>
     c60:	2b 01       	movw	r4, r22
     c62:	3c 01       	movw	r6, r24
     c64:	0e 94 96 0e 	call	0x1d2c	; 0x1d2c <StackPopInt>
     c68:	e9 85       	ldd	r30, Y+9	; 0x09
     c6a:	e2 3a       	cpi	r30, 0xA2	; 162
     c6c:	41 f1       	breq	.+80     	; 0xcbe <__stack+0x3bf>
     c6e:	28 f4       	brcc	.+10     	; 0xc7a <__stack+0x37b>
     c70:	e0 3a       	cpi	r30, 0xA0	; 160
     c72:	b9 f0       	breq	.+46     	; 0xca2 <__stack+0x3a3>
     c74:	e1 3a       	cpi	r30, 0xA1	; 161
     c76:	e1 f0       	breq	.+56     	; 0xcb0 <__stack+0x3b1>
     c78:	05 c0       	rjmp	.+10     	; 0xc84 <__stack+0x385>
     c7a:	f9 85       	ldd	r31, Y+9	; 0x09
     c7c:	f3 3a       	cpi	r31, 0xA3	; 163
     c7e:	31 f1       	breq	.+76     	; 0xccc <__stack+0x3cd>
     c80:	f4 3a       	cpi	r31, 0xA4	; 164
     c82:	59 f1       	breq	.+86     	; 0xcda <__stack+0x3db>
     c84:	21 e0       	ldi	r18, 0x01	; 1
     c86:	64 15       	cp	r22, r4
     c88:	75 05       	cpc	r23, r5
     c8a:	86 05       	cpc	r24, r6
     c8c:	97 05       	cpc	r25, r7
     c8e:	09 f0       	breq	.+2      	; 0xc92 <__stack+0x393>
     c90:	20 e0       	ldi	r18, 0x00	; 0
     c92:	c2 2e       	mov	r12, r18
     c94:	d1 2c       	mov	r13, r1
     c96:	e1 2c       	mov	r14, r1
     c98:	f1 2c       	mov	r15, r1
     c9a:	81 e0       	ldi	r24, 0x01	; 1
     c9c:	2f e9       	ldi	r18, 0x9F	; 159
     c9e:	29 87       	std	Y+9, r18	; 0x09
     ca0:	d7 c2       	rjmp	.+1454   	; 0x1250 <__stack+0x951>
     ca2:	21 e0       	ldi	r18, 0x01	; 1
     ca4:	64 15       	cp	r22, r4
     ca6:	75 05       	cpc	r23, r5
     ca8:	86 05       	cpc	r24, r6
     caa:	97 05       	cpc	r25, r7
     cac:	e9 f4       	brne	.+58     	; 0xce8 <__stack+0x3e9>
     cae:	1b c0       	rjmp	.+54     	; 0xce6 <__stack+0x3e7>
     cb0:	21 e0       	ldi	r18, 0x01	; 1
     cb2:	64 15       	cp	r22, r4
     cb4:	75 05       	cpc	r23, r5
     cb6:	86 05       	cpc	r24, r6
     cb8:	97 05       	cpc	r25, r7
     cba:	b4 f0       	brlt	.+44     	; 0xce8 <__stack+0x3e9>
     cbc:	14 c0       	rjmp	.+40     	; 0xce6 <__stack+0x3e7>
     cbe:	21 e0       	ldi	r18, 0x01	; 1
     cc0:	64 15       	cp	r22, r4
     cc2:	75 05       	cpc	r23, r5
     cc4:	86 05       	cpc	r24, r6
     cc6:	97 05       	cpc	r25, r7
     cc8:	7c f4       	brge	.+30     	; 0xce8 <__stack+0x3e9>
     cca:	0d c0       	rjmp	.+26     	; 0xce6 <__stack+0x3e7>
     ccc:	21 e0       	ldi	r18, 0x01	; 1
     cce:	46 16       	cp	r4, r22
     cd0:	57 06       	cpc	r5, r23
     cd2:	68 06       	cpc	r6, r24
     cd4:	79 06       	cpc	r7, r25
     cd6:	44 f0       	brlt	.+16     	; 0xce8 <__stack+0x3e9>
     cd8:	06 c0       	rjmp	.+12     	; 0xce6 <__stack+0x3e7>
     cda:	21 e0       	ldi	r18, 0x01	; 1
     cdc:	46 16       	cp	r4, r22
     cde:	57 06       	cpc	r5, r23
     ce0:	68 06       	cpc	r6, r24
     ce2:	79 06       	cpc	r7, r25
     ce4:	0c f4       	brge	.+2      	; 0xce8 <__stack+0x3e9>
     ce6:	20 e0       	ldi	r18, 0x00	; 0
     ce8:	c2 2e       	mov	r12, r18
     cea:	d1 2c       	mov	r13, r1
     cec:	e1 2c       	mov	r14, r1
     cee:	f1 2c       	mov	r15, r1
     cf0:	ab c2       	rjmp	.+1366   	; 0x1248 <__stack+0x949>
     cf2:	c4 01       	movw	r24, r8
     cf4:	03 97       	sbiw	r24, 0x03	; 3
     cf6:	28 0e       	add	r2, r24
     cf8:	39 1e       	adc	r3, r25
     cfa:	a0 c1       	rjmp	.+832    	; 0x103c <__stack+0x73d>
     cfc:	0e 94 96 0e 	call	0x1d2c	; 0x1d2c <StackPopInt>
     d00:	cc 24       	eor	r12, r12
     d02:	dd 24       	eor	r13, r13
     d04:	76 01       	movw	r14, r12
     d06:	c6 1a       	sub	r12, r22
     d08:	d7 0a       	sbc	r13, r23
     d0a:	e8 0a       	sbc	r14, r24
     d0c:	f9 0a       	sbc	r15, r25
     d0e:	c7 01       	movw	r24, r14
     d10:	b6 01       	movw	r22, r12
     d12:	a9 c0       	rjmp	.+338    	; 0xe66 <__stack+0x567>
     d14:	00 91 dd 11 	lds	r16, 0x11DD
     d18:	10 91 de 11 	lds	r17, 0x11DE
     d1c:	34 e0       	ldi	r19, 0x04	; 4
     d1e:	43 02       	muls	r20, r19
     d20:	00 0d       	add	r16, r0
     d22:	11 1d       	adc	r17, r1
     d24:	11 24       	eor	r1, r1
     d26:	f8 01       	movw	r30, r16
     d28:	60 81       	ld	r22, Z
     d2a:	71 81       	ldd	r23, Z+1	; 0x01
     d2c:	82 81       	ldd	r24, Z+2	; 0x02
     d2e:	93 81       	ldd	r25, Z+3	; 0x03
     d30:	0e 94 2d 04 	call	0x85a	; 0x85a <VmStackToInt>
     d34:	47 2c       	mov	r4, r7
     d36:	55 24       	eor	r5, r5
     d38:	47 fc       	sbrc	r4, 7
     d3a:	50 94       	com	r5
     d3c:	65 2c       	mov	r6, r5
     d3e:	75 2c       	mov	r7, r5
     d40:	64 0d       	add	r22, r4
     d42:	75 1d       	adc	r23, r5
     d44:	86 1d       	adc	r24, r6
     d46:	97 1d       	adc	r25, r7
     d48:	9f 77       	andi	r25, 0x7F	; 127
     d4a:	f8 01       	movw	r30, r16
     d4c:	60 83       	st	Z, r22
     d4e:	71 83       	std	Z+1, r23	; 0x01
     d50:	82 83       	std	Z+2, r24	; 0x02
     d52:	93 83       	std	Z+3, r25	; 0x03
     d54:	73 c1       	rjmp	.+742    	; 0x103c <__stack+0x73d>
     d56:	0e 94 96 0e 	call	0x1d2c	; 0x1d2c <StackPopInt>
     d5a:	6b 01       	movw	r12, r22
     d5c:	7c 01       	movw	r14, r24
     d5e:	0e 94 96 0e 	call	0x1d2c	; 0x1d2c <StackPopInt>
     d62:	9b 01       	movw	r18, r22
     d64:	ac 01       	movw	r20, r24
     d66:	f9 85       	ldd	r31, Y+9	; 0x09
     d68:	f8 37       	cpi	r31, 0x78	; 120
     d6a:	09 f4       	brne	.+2      	; 0xd6e <__stack+0x46f>
     d6c:	5f c0       	rjmp	.+190    	; 0xe2c <__stack+0x52d>
     d6e:	d0 f4       	brcc	.+52     	; 0xda4 <__stack+0x4a5>
     d70:	f8 36       	cpi	r31, 0x68	; 104
     d72:	e9 f1       	breq	.+122    	; 0xdee <__stack+0x4ef>
     d74:	50 f4       	brcc	.+20     	; 0xd8a <__stack+0x48b>
     d76:	f0 36       	cpi	r31, 0x60	; 96
     d78:	a9 f1       	breq	.+106    	; 0xde4 <__stack+0x4e5>
     d7a:	f4 36       	cpi	r31, 0x64	; 100
     d7c:	09 f0       	breq	.+2      	; 0xd80 <__stack+0x481>
     d7e:	71 c0       	rjmp	.+226    	; 0xe62 <__stack+0x563>
     d80:	2c 19       	sub	r18, r12
     d82:	3d 09       	sbc	r19, r13
     d84:	4e 09       	sbc	r20, r14
     d86:	5f 09       	sbc	r21, r15
     d88:	6c c0       	rjmp	.+216    	; 0xe62 <__stack+0x563>
     d8a:	89 85       	ldd	r24, Y+9	; 0x09
     d8c:	8c 36       	cpi	r24, 0x6C	; 108
     d8e:	a1 f1       	breq	.+104    	; 0xdf8 <__stack+0x4f9>
     d90:	80 37       	cpi	r24, 0x70	; 112
     d92:	09 f0       	breq	.+2      	; 0xd96 <__stack+0x497>
     d94:	66 c0       	rjmp	.+204    	; 0xe62 <__stack+0x563>
     d96:	ca 01       	movw	r24, r20
     d98:	b9 01       	movw	r22, r18
     d9a:	a7 01       	movw	r20, r14
     d9c:	96 01       	movw	r18, r12
     d9e:	0e 94 85 0f 	call	0x1f0a	; 0x1f0a <__divmodsi4>
     da2:	41 c0       	rjmp	.+130    	; 0xe26 <__stack+0x527>
     da4:	99 85       	ldd	r25, Y+9	; 0x09
     da6:	9e 37       	cpi	r25, 0x7E	; 126
     da8:	09 f4       	brne	.+2      	; 0xdac <__stack+0x4ad>
     daa:	52 c0       	rjmp	.+164    	; 0xe50 <__stack+0x551>
     dac:	78 f4       	brcc	.+30     	; 0xdcc <__stack+0x4cd>
     dae:	9a 37       	cpi	r25, 0x7A	; 122
     db0:	09 f4       	brne	.+2      	; 0xdb4 <__stack+0x4b5>
     db2:	45 c0       	rjmp	.+138    	; 0xe3e <__stack+0x53f>
     db4:	9c 37       	cpi	r25, 0x7C	; 124
     db6:	09 f0       	breq	.+2      	; 0xdba <__stack+0x4bb>
     db8:	54 c0       	rjmp	.+168    	; 0xe62 <__stack+0x563>
     dba:	0c 2c       	mov	r0, r12
     dbc:	04 c0       	rjmp	.+8      	; 0xdc6 <__stack+0x4c7>
     dbe:	56 95       	lsr	r21
     dc0:	47 95       	ror	r20
     dc2:	37 95       	ror	r19
     dc4:	27 95       	ror	r18
     dc6:	0a 94       	dec	r0
     dc8:	d2 f7       	brpl	.-12     	; 0xdbe <__stack+0x4bf>
     dca:	4b c0       	rjmp	.+150    	; 0xe62 <__stack+0x563>
     dcc:	e9 85       	ldd	r30, Y+9	; 0x09
     dce:	e0 38       	cpi	r30, 0x80	; 128
     dd0:	09 f4       	brne	.+2      	; 0xdd4 <__stack+0x4d5>
     dd2:	43 c0       	rjmp	.+134    	; 0xe5a <__stack+0x55b>
     dd4:	e2 38       	cpi	r30, 0x82	; 130
     dd6:	09 f0       	breq	.+2      	; 0xdda <__stack+0x4db>
     dd8:	44 c0       	rjmp	.+136    	; 0xe62 <__stack+0x563>
     dda:	2c 25       	eor	r18, r12
     ddc:	3d 25       	eor	r19, r13
     dde:	4e 25       	eor	r20, r14
     de0:	5f 25       	eor	r21, r15
     de2:	3f c0       	rjmp	.+126    	; 0xe62 <__stack+0x563>
     de4:	2c 0d       	add	r18, r12
     de6:	3d 1d       	adc	r19, r13
     de8:	4e 1d       	adc	r20, r14
     dea:	5f 1d       	adc	r21, r15
     dec:	3a c0       	rjmp	.+116    	; 0xe62 <__stack+0x563>
     dee:	c7 01       	movw	r24, r14
     df0:	b6 01       	movw	r22, r12
     df2:	0e 94 55 0f 	call	0x1eaa	; 0x1eaa <__mulsi3>
     df6:	17 c0       	rjmp	.+46     	; 0xe26 <__stack+0x527>
     df8:	c1 14       	cp	r12, r1
     dfa:	d1 04       	cpc	r13, r1
     dfc:	e1 04       	cpc	r14, r1
     dfe:	f1 04       	cpc	r15, r1
     e00:	59 f4       	brne	.+22     	; 0xe18 <__stack+0x519>
     e02:	83 e1       	ldi	r24, 0x13	; 19
     e04:	2b 8b       	std	Y+19, r18	; 0x13
     e06:	38 8b       	std	Y+16, r19	; 0x10
     e08:	4a 8b       	std	Y+18, r20	; 0x12
     e0a:	59 8b       	std	Y+17, r21	; 0x11
     e0c:	0e 94 3c 0a 	call	0x1478	; 0x1478 <HandleError>
     e10:	59 89       	ldd	r21, Y+17	; 0x11
     e12:	4a 89       	ldd	r20, Y+18	; 0x12
     e14:	38 89       	ldd	r19, Y+16	; 0x10
     e16:	2b 89       	ldd	r18, Y+19	; 0x13
     e18:	ca 01       	movw	r24, r20
     e1a:	b9 01       	movw	r22, r18
     e1c:	a7 01       	movw	r20, r14
     e1e:	96 01       	movw	r18, r12
     e20:	0e 94 85 0f 	call	0x1f0a	; 0x1f0a <__divmodsi4>
     e24:	1e c0       	rjmp	.+60     	; 0xe62 <__stack+0x563>
     e26:	9b 01       	movw	r18, r22
     e28:	ac 01       	movw	r20, r24
     e2a:	1b c0       	rjmp	.+54     	; 0xe62 <__stack+0x563>
     e2c:	0c 2c       	mov	r0, r12
     e2e:	04 c0       	rjmp	.+8      	; 0xe38 <__stack+0x539>
     e30:	22 0f       	add	r18, r18
     e32:	33 1f       	adc	r19, r19
     e34:	44 1f       	adc	r20, r20
     e36:	55 1f       	adc	r21, r21
     e38:	0a 94       	dec	r0
     e3a:	d2 f7       	brpl	.-12     	; 0xe30 <__stack+0x531>
     e3c:	12 c0       	rjmp	.+36     	; 0xe62 <__stack+0x563>
     e3e:	0c 2c       	mov	r0, r12
     e40:	04 c0       	rjmp	.+8      	; 0xe4a <__stack+0x54b>
     e42:	55 95       	asr	r21
     e44:	47 95       	ror	r20
     e46:	37 95       	ror	r19
     e48:	27 95       	ror	r18
     e4a:	0a 94       	dec	r0
     e4c:	d2 f7       	brpl	.-12     	; 0xe42 <__stack+0x543>
     e4e:	09 c0       	rjmp	.+18     	; 0xe62 <__stack+0x563>
     e50:	2c 21       	and	r18, r12
     e52:	3d 21       	and	r19, r13
     e54:	4e 21       	and	r20, r14
     e56:	5f 21       	and	r21, r15
     e58:	04 c0       	rjmp	.+8      	; 0xe62 <__stack+0x563>
     e5a:	2c 29       	or	r18, r12
     e5c:	3d 29       	or	r19, r13
     e5e:	4e 29       	or	r20, r14
     e60:	5f 29       	or	r21, r15
     e62:	ca 01       	movw	r24, r20
     e64:	b9 01       	movw	r22, r18
     e66:	9f 77       	andi	r25, 0x7F	; 127
     e68:	e9 c1       	rjmp	.+978    	; 0x123c <__stack+0x93d>
     e6a:	0e 94 87 0e 	call	0x1d0e	; 0x1d0e <StackPop>
     e6e:	6b 01       	movw	r12, r22
     e70:	7c 01       	movw	r14, r24
     e72:	0e 94 1c 0f 	call	0x1e38	; 0x1e38 <StackIsEmpty>
     e76:	81 11       	cpse	r24, r1
     e78:	e7 c1       	rjmp	.+974    	; 0x1248 <__stack+0x949>
     e7a:	0f 81       	ldd	r16, Y+7	; 0x07
     e7c:	18 85       	ldd	r17, Y+8	; 0x08
     e7e:	10 0f       	add	r17, r16
     e80:	1d 5f       	subi	r17, 0xFD	; 253
     e82:	8e 81       	ldd	r24, Y+6	; 0x06
     e84:	18 0f       	add	r17, r24
     e86:	0e 94 87 0e 	call	0x1d0e	; 0x1d0e <StackPop>
     e8a:	2b 01       	movw	r4, r22
     e8c:	3c 01       	movw	r6, r24
     e8e:	0e 94 87 0e 	call	0x1d0e	; 0x1d0e <StackPop>
     e92:	7d 87       	std	Y+13, r23	; 0x0d
     e94:	6c 87       	std	Y+12, r22	; 0x0c
     e96:	cb 01       	movw	r24, r22
     e98:	0e 94 df 0a 	call	0x15be	; 0x15be <VmFileGetMethodHeader>
     e9c:	9b 87       	std	Y+11, r25	; 0x0b
     e9e:	8a 87       	std	Y+10, r24	; 0x0a
     ea0:	48 e0       	ldi	r20, 0x08	; 8
     ea2:	50 e0       	ldi	r21, 0x00	; 0
     ea4:	bc 01       	movw	r22, r24
     ea6:	ce 01       	movw	r24, r28
     ea8:	01 96       	adiw	r24, 0x01	; 1
     eaa:	0e 94 61 0a 	call	0x14c2	; 0x14c2 <VmFileRead>
     eae:	0e 94 87 0e 	call	0x1d0e	; 0x1d0e <StackPop>
     eb2:	2a 84       	ldd	r2, Y+10	; 0x0a
     eb4:	3b 84       	ldd	r3, Y+11	; 0x0b
     eb6:	26 0e       	add	r2, r22
     eb8:	37 1e       	adc	r3, r23
     eba:	80 2f       	mov	r24, r16
     ebc:	81 95       	neg	r24
     ebe:	0e 94 e2 0e 	call	0x1dc4	; 0x1dc4 <StackAddToSp>
     ec2:	0e 94 f0 0e 	call	0x1de0	; 0x1de0 <GetStackPointer>
     ec6:	84 19       	sub	r24, r4
     ec8:	95 09       	sbc	r25, r5
     eca:	90 93 de 11 	sts	0x11DE, r25
     ece:	80 93 dd 11 	sts	0x11DD, r24
     ed2:	f4 e0       	ldi	r31, 0x04	; 4
     ed4:	1f 9f       	mul	r17, r31
     ed6:	c0 01       	movw	r24, r0
     ed8:	11 24       	eor	r1, r1
     eda:	0e 94 17 0e 	call	0x1c2e	; 0x1c2e <HeapUnsteal>
     ede:	29 85       	ldd	r18, Y+9	; 0x09
     ee0:	2c 3a       	cpi	r18, 0xAC	; 172
     ee2:	09 f0       	breq	.+2      	; 0xee6 <__stack+0x5e7>
     ee4:	b3 c1       	rjmp	.+870    	; 0x124c <__stack+0x94d>
     ee6:	c7 01       	movw	r24, r14
     ee8:	b6 01       	movw	r22, r12
     eea:	0e 94 77 0e 	call	0x1cee	; 0x1cee <StackPush>
     eee:	ae c1       	rjmp	.+860    	; 0x124c <__stack+0x94d>
     ef0:	0e 94 87 0e 	call	0x1d0e	; 0x1d0e <StackPop>
     ef4:	0e 94 87 0e 	call	0x1d0e	; 0x1d0e <StackPop>
     ef8:	a7 c1       	rjmp	.+846    	; 0x1248 <__stack+0x949>
     efa:	80 e0       	ldi	r24, 0x00	; 0
     efc:	0e 94 a6 0e 	call	0x1d4c	; 0x1d4c <StackPeek>
     f00:	9d c1       	rjmp	.+826    	; 0x123c <__stack+0x93d>
     f02:	c1 01       	movw	r24, r2
     f04:	07 96       	adiw	r24, 0x07	; 7
     f06:	0e 94 64 0a 	call	0x14c8	; 0x14c8 <VmFileRead08>
     f0a:	c8 2e       	mov	r12, r24
     f0c:	c1 01       	movw	r24, r2
     f0e:	08 96       	adiw	r24, 0x08	; 8
     f10:	0e 94 64 0a 	call	0x14c8	; 0x14c8 <VmFileRead08>
     f14:	d1 2c       	mov	r13, r1
     f16:	dc 2c       	mov	r13, r12
     f18:	cc 24       	eor	r12, r12
     f1a:	c8 2a       	or	r12, r24
     f1c:	ee 24       	eor	r14, r14
     f1e:	d7 fc       	sbrc	r13, 7
     f20:	e0 94       	com	r14
     f22:	fe 2c       	mov	r15, r14
     f24:	c1 01       	movw	r24, r2
     f26:	0b 96       	adiw	r24, 0x0b	; 11
     f28:	0e 94 64 0a 	call	0x14c8	; 0x14c8 <VmFileRead08>
     f2c:	18 2f       	mov	r17, r24
     f2e:	c1 01       	movw	r24, r2
     f30:	0c 96       	adiw	r24, 0x0c	; 12
     f32:	0e 94 64 0a 	call	0x14c8	; 0x14c8 <VmFileRead08>
     f36:	08 2f       	mov	r16, r24
     f38:	0e 94 87 0e 	call	0x1d0e	; 0x1d0e <StackPop>
     f3c:	4b 01       	movw	r8, r22
     f3e:	5c 01       	movw	r10, r24
     f40:	2b 01       	movw	r4, r22
     f42:	3c 01       	movw	r6, r24
     f44:	6c 15       	cp	r22, r12
     f46:	7d 05       	cpc	r23, r13
     f48:	8e 05       	cpc	r24, r14
     f4a:	9f 05       	cpc	r25, r15
     f4c:	ec f0       	brlt	.+58     	; 0xf88 <__stack+0x689>
     f4e:	80 2f       	mov	r24, r16
     f50:	90 e0       	ldi	r25, 0x00	; 0
     f52:	91 2b       	or	r25, r17
     f54:	aa 27       	eor	r26, r26
     f56:	97 fd       	sbrc	r25, 7
     f58:	a0 95       	com	r26
     f5a:	ba 2f       	mov	r27, r26
     f5c:	88 15       	cp	r24, r8
     f5e:	99 05       	cpc	r25, r9
     f60:	aa 05       	cpc	r26, r10
     f62:	bb 05       	cpc	r27, r11
     f64:	8c f0       	brlt	.+34     	; 0xf88 <__stack+0x689>
     f66:	4c 18       	sub	r4, r12
     f68:	5d 08       	sbc	r5, r13
     f6a:	6e 08       	sbc	r6, r14
     f6c:	7f 08       	sbc	r7, r15
     f6e:	f2 e0       	ldi	r31, 0x02	; 2
     f70:	44 0c       	add	r4, r4
     f72:	55 1c       	adc	r5, r5
     f74:	66 1c       	adc	r6, r6
     f76:	77 1c       	adc	r7, r7
     f78:	fa 95       	dec	r31
     f7a:	d1 f7       	brne	.-12     	; 0xf70 <__stack+0x671>
     f7c:	3f e0       	ldi	r19, 0x0F	; 15
     f7e:	43 0e       	add	r4, r19
     f80:	51 1c       	adc	r5, r1
     f82:	61 1c       	adc	r6, r1
     f84:	71 1c       	adc	r7, r1
     f86:	05 c0       	rjmp	.+10     	; 0xf92 <__stack+0x693>
     f88:	e3 e0       	ldi	r30, 0x03	; 3
     f8a:	4e 2e       	mov	r4, r30
     f8c:	51 2c       	mov	r5, r1
     f8e:	61 2c       	mov	r6, r1
     f90:	71 2c       	mov	r7, r1
     f92:	c1 01       	movw	r24, r2
     f94:	84 0d       	add	r24, r4
     f96:	95 1d       	adc	r25, r5
     f98:	0e 94 64 0a 	call	0x14c8	; 0x14c8 <VmFileRead08>
     f9c:	18 2f       	mov	r17, r24
     f9e:	c2 01       	movw	r24, r4
     fa0:	01 96       	adiw	r24, 0x01	; 1
     fa2:	3b c0       	rjmp	.+118    	; 0x101a <__stack+0x71b>
     fa4:	c1 01       	movw	r24, r2
     fa6:	88 0d       	add	r24, r8
     fa8:	99 1d       	adc	r25, r9
     faa:	0e 94 64 0a 	call	0x14c8	; 0x14c8 <VmFileRead08>
     fae:	84 15       	cp	r24, r4
     fb0:	49 f0       	breq	.+18     	; 0xfc4 <__stack+0x6c5>
     fb2:	88 e0       	ldi	r24, 0x08	; 8
     fb4:	88 0e       	add	r8, r24
     fb6:	91 1c       	adc	r9, r1
     fb8:	a1 1c       	adc	r10, r1
     fba:	b1 1c       	adc	r11, r1
     fbc:	5a 94       	dec	r5
     fbe:	51 10       	cpse	r5, r1
     fc0:	f1 cf       	rjmp	.-30     	; 0xfa4 <__stack+0x6a5>
     fc2:	1e c0       	rjmp	.+60     	; 0x1000 <__stack+0x701>
     fc4:	c4 01       	movw	r24, r8
     fc6:	01 96       	adiw	r24, 0x01	; 1
     fc8:	82 0d       	add	r24, r2
     fca:	93 1d       	adc	r25, r3
     fcc:	0e 94 64 0a 	call	0x14c8	; 0x14c8 <VmFileRead08>
     fd0:	80 13       	cpse	r24, r16
     fd2:	ef cf       	rjmp	.-34     	; 0xfb2 <__stack+0x6b3>
     fd4:	c4 01       	movw	r24, r8
     fd6:	02 96       	adiw	r24, 0x02	; 2
     fd8:	82 0d       	add	r24, r2
     fda:	93 1d       	adc	r25, r3
     fdc:	0e 94 64 0a 	call	0x14c8	; 0x14c8 <VmFileRead08>
     fe0:	81 13       	cpse	r24, r17
     fe2:	e7 cf       	rjmp	.-50     	; 0xfb2 <__stack+0x6b3>
     fe4:	c4 01       	movw	r24, r8
     fe6:	03 96       	adiw	r24, 0x03	; 3
     fe8:	82 0d       	add	r24, r2
     fea:	93 1d       	adc	r25, r3
     fec:	0e 94 64 0a 	call	0x14c8	; 0x14c8 <VmFileRead08>
     ff0:	8c 11       	cpse	r24, r12
     ff2:	df cf       	rjmp	.-66     	; 0xfb2 <__stack+0x6b3>
     ff4:	44 e0       	ldi	r20, 0x04	; 4
     ff6:	84 0e       	add	r8, r20
     ff8:	91 1c       	adc	r9, r1
     ffa:	a1 1c       	adc	r10, r1
     ffc:	b1 1c       	adc	r11, r1
     ffe:	04 c0       	rjmp	.+8      	; 0x1008 <__stack+0x709>
    1000:	81 2c       	mov	r8, r1
    1002:	91 2c       	mov	r9, r1
    1004:	54 01       	movw	r10, r8
    1006:	83 94       	inc	r8
    1008:	c4 01       	movw	r24, r8
    100a:	02 96       	adiw	r24, 0x02	; 2
    100c:	82 0d       	add	r24, r2
    100e:	93 1d       	adc	r25, r3
    1010:	0e 94 64 0a 	call	0x14c8	; 0x14c8 <VmFileRead08>
    1014:	18 2f       	mov	r17, r24
    1016:	c4 01       	movw	r24, r8
    1018:	03 96       	adiw	r24, 0x03	; 3
    101a:	82 0d       	add	r24, r2
    101c:	93 1d       	adc	r25, r3
    101e:	0e 94 64 0a 	call	0x14c8	; 0x14c8 <VmFileRead08>
    1022:	21 2f       	mov	r18, r17
    1024:	30 e0       	ldi	r19, 0x00	; 0
    1026:	32 2f       	mov	r19, r18
    1028:	22 27       	eor	r18, r18
    102a:	28 2b       	or	r18, r24
    102c:	22 0e       	add	r2, r18
    102e:	33 1e       	adc	r3, r19
    1030:	a0 c0       	rjmp	.+320    	; 0x1172 <__stack+0x873>
    1032:	c4 01       	movw	r24, r8
    1034:	0e 94 f5 0e 	call	0x1dea	; 0x1dea <StackGetStaticVariable>
    1038:	0e 94 77 0e 	call	0x1cee	; 0x1cee <StackPush>
    103c:	83 e0       	ldi	r24, 0x03	; 3
    103e:	08 c1       	rjmp	.+528    	; 0x1250 <__stack+0x951>
    1040:	0e 94 87 0e 	call	0x1d0e	; 0x1d0e <StackPop>
    1044:	ab 01       	movw	r20, r22
    1046:	bc 01       	movw	r22, r24
    1048:	c4 01       	movw	r24, r8
    104a:	0e 94 04 0f 	call	0x1e08	; 0x1e08 <StackSetStaticVariable>
    104e:	f6 cf       	rjmp	.-20     	; 0x103c <__stack+0x73d>
    1050:	84 2f       	mov	r24, r20
    1052:	0e 94 f4 0a 	call	0x15e8	; 0x15e8 <VmFileGetConstant>
    1056:	0e 94 77 0e 	call	0x1cee	; 0x1cee <StackPush>
    105a:	c6 cd       	rjmp	.-1140   	; 0xbe8 <__stack+0x2e9>
    105c:	40 31       	cpi	r20, 0x10	; 16
    105e:	0c f0       	brlt	.+2      	; 0x1062 <__stack+0x763>
    1060:	8a c0       	rjmp	.+276    	; 0x1176 <__stack+0x877>
    1062:	61 01       	movw	r12, r2
    1064:	ea 85       	ldd	r30, Y+10	; 0x0a
    1066:	fb 85       	ldd	r31, Y+11	; 0x0b
    1068:	ce 1a       	sub	r12, r30
    106a:	df 0a       	sbc	r13, r31
    106c:	ee 24       	eor	r14, r14
    106e:	d7 fc       	sbrc	r13, 7
    1070:	e0 94       	com	r14
    1072:	fe 2c       	mov	r15, r14
    1074:	c4 01       	movw	r24, r8
    1076:	0e 94 df 0a 	call	0x15be	; 0x15be <VmFileGetMethodHeader>
    107a:	9b 87       	std	Y+11, r25	; 0x0b
    107c:	8a 87       	std	Y+10, r24	; 0x0a
    107e:	48 e0       	ldi	r20, 0x08	; 8
    1080:	50 e0       	ldi	r21, 0x00	; 0
    1082:	bc 01       	movw	r22, r24
    1084:	ce 01       	movw	r24, r28
    1086:	01 96       	adiw	r24, 0x01	; 1
    1088:	0e 94 61 0a 	call	0x14c2	; 0x14c2 <VmFileRead>
    108c:	f9 85       	ldd	r31, Y+9	; 0x09
    108e:	f6 3b       	cpi	r31, 0xB6	; 182
    1090:	71 f5       	brne	.+92     	; 0x10ee <__stack+0x7ef>
    1092:	80 e0       	ldi	r24, 0x00	; 0
    1094:	0e 94 a6 0e 	call	0x1d4c	; 0x1d4c <StackPeek>
    1098:	cb 01       	movw	r24, r22
    109a:	0e 94 07 0d 	call	0x1a0e	; 0x1a0e <HeapGetAddress>
    109e:	2b 81       	ldd	r18, Y+3	; 0x03
    10a0:	fc 01       	movw	r30, r24
    10a2:	81 81       	ldd	r24, Z+1	; 0x01
    10a4:	92 81       	ldd	r25, Z+2	; 0x02
    10a6:	a3 81       	ldd	r26, Z+3	; 0x03
    10a8:	ac 01       	movw	r20, r24
    10aa:	6a 2f       	mov	r22, r26
    10ac:	70 e0       	ldi	r23, 0x00	; 0
    10ae:	fc 81       	ldd	r31, Y+4	; 0x04
    10b0:	fe 87       	std	Y+14, r31	; 0x0e
    10b2:	1f 86       	std	Y+15, r1	; 0x0f
    10b4:	ee 85       	ldd	r30, Y+14	; 0x0e
    10b6:	ff 85       	ldd	r31, Y+15	; 0x0f
    10b8:	cf 01       	movw	r24, r30
    10ba:	a0 e0       	ldi	r26, 0x00	; 0
    10bc:	b0 e0       	ldi	r27, 0x00	; 0
    10be:	48 17       	cp	r20, r24
    10c0:	59 07       	cpc	r21, r25
    10c2:	6a 07       	cpc	r22, r26
    10c4:	7b 07       	cpc	r23, r27
    10c6:	99 f0       	breq	.+38     	; 0x10ee <__stack+0x7ef>
    10c8:	62 2f       	mov	r22, r18
    10ca:	8d 85       	ldd	r24, Y+13	; 0x0d
    10cc:	0e 94 f1 0b 	call	0x17e2	; 0x17e2 <VmFileGetMethodByClassAndId>
    10d0:	98 2e       	mov	r9, r24
    10d2:	99 27       	eor	r25, r25
    10d4:	87 fd       	sbrc	r24, 7
    10d6:	90 95       	com	r25
    10d8:	0e 94 df 0a 	call	0x15be	; 0x15be <VmFileGetMethodHeader>
    10dc:	9b 87       	std	Y+11, r25	; 0x0b
    10de:	8a 87       	std	Y+10, r24	; 0x0a
    10e0:	48 e0       	ldi	r20, 0x08	; 8
    10e2:	50 e0       	ldi	r21, 0x00	; 0
    10e4:	bc 01       	movw	r22, r24
    10e6:	ce 01       	movw	r24, r28
    10e8:	01 96       	adiw	r24, 0x01	; 1
    10ea:	0e 94 61 0a 	call	0x14c2	; 0x14c2 <VmFileRead>
    10ee:	8e 81       	ldd	r24, Y+6	; 0x06
    10f0:	81 95       	neg	r24
    10f2:	0e 94 e2 0e 	call	0x1dc4	; 0x1dc4 <StackAddToSp>
    10f6:	0e 94 f0 0e 	call	0x1de0	; 0x1de0 <GetStackPointer>
    10fa:	20 91 dd 11 	lds	r18, 0x11DD
    10fe:	30 91 de 11 	lds	r19, 0x11DE
    1102:	2c 5f       	subi	r18, 0xFC	; 252
    1104:	3f 4f       	sbci	r19, 0xFF	; 255
    1106:	8c 01       	movw	r16, r24
    1108:	02 1b       	sub	r16, r18
    110a:	13 0b       	sbc	r17, r19
    110c:	0e 94 f0 0e 	call	0x1de0	; 0x1de0 <GetStackPointer>
    1110:	90 93 de 11 	sts	0x11DE, r25
    1114:	80 93 dd 11 	sts	0x11DD, r24
    1118:	8f 81       	ldd	r24, Y+7	; 0x07
    111a:	90 e0       	ldi	r25, 0x00	; 0
    111c:	03 96       	adiw	r24, 0x03	; 3
    111e:	28 85       	ldd	r18, Y+8	; 0x08
    1120:	82 0f       	add	r24, r18
    1122:	91 1d       	adc	r25, r1
    1124:	2e 81       	ldd	r18, Y+6	; 0x06
    1126:	82 0f       	add	r24, r18
    1128:	91 1d       	adc	r25, r1
    112a:	88 0f       	add	r24, r24
    112c:	99 1f       	adc	r25, r25
    112e:	88 0f       	add	r24, r24
    1130:	99 1f       	adc	r25, r25
    1132:	0e 94 db 0d 	call	0x1bb6	; 0x1bb6 <HeapSteal>
    1136:	8f 81       	ldd	r24, Y+7	; 0x07
    1138:	81 50       	subi	r24, 0x01	; 1
    113a:	0e 94 e2 0e 	call	0x1dc4	; 0x1dc4 <StackAddToSp>
    113e:	c7 01       	movw	r24, r14
    1140:	b6 01       	movw	r22, r12
    1142:	0e 94 77 0e 	call	0x1cee	; 0x1cee <StackPush>
    1146:	2c 85       	ldd	r18, Y+12	; 0x0c
    1148:	3d 85       	ldd	r19, Y+13	; 0x0d
    114a:	b9 01       	movw	r22, r18
    114c:	80 e0       	ldi	r24, 0x00	; 0
    114e:	90 e0       	ldi	r25, 0x00	; 0
    1150:	0e 94 77 0e 	call	0x1cee	; 0x1cee <StackPush>
    1154:	b8 01       	movw	r22, r16
    1156:	88 27       	eor	r24, r24
    1158:	77 fd       	sbrc	r23, 7
    115a:	80 95       	com	r24
    115c:	98 2f       	mov	r25, r24
    115e:	0e 94 77 0e 	call	0x1cee	; 0x1cee <StackPush>
    1162:	9d 86       	std	Y+13, r9	; 0x0d
    1164:	8c 86       	std	Y+12, r8	; 0x0c
    1166:	29 80       	ldd	r2, Y+1	; 0x01
    1168:	3a 80       	ldd	r3, Y+2	; 0x02
    116a:	8a 85       	ldd	r24, Y+10	; 0x0a
    116c:	9b 85       	ldd	r25, Y+11	; 0x0b
    116e:	28 0e       	add	r2, r24
    1170:	39 1e       	adc	r3, r25
    1172:	80 e0       	ldi	r24, 0x00	; 0
    1174:	6d c0       	rjmp	.+218    	; 0x1250 <__stack+0x951>
    1176:	c4 01       	movw	r24, r8
    1178:	0e 94 bd 03 	call	0x77a	; 0x77a <InvokeNativeMethod>
    117c:	5f cf       	rjmp	.-322    	; 0x103c <__stack+0x73d>
    117e:	0e 94 87 0e 	call	0x1d0e	; 0x1d0e <StackPop>
    1182:	9f 73       	andi	r25, 0x3F	; 63
    1184:	cb 01       	movw	r24, r22
    1186:	0e 94 07 0d 	call	0x1a0e	; 0x1a0e <HeapGetAddress>
    118a:	f4 01       	movw	r30, r8
    118c:	31 96       	adiw	r30, 0x01	; 1
    118e:	ee 0f       	add	r30, r30
    1190:	ff 1f       	adc	r31, r31
    1192:	ee 0f       	add	r30, r30
    1194:	ff 1f       	adc	r31, r31
    1196:	e8 0f       	add	r30, r24
    1198:	f9 1f       	adc	r31, r25
    119a:	60 81       	ld	r22, Z
    119c:	71 81       	ldd	r23, Z+1	; 0x01
    119e:	82 81       	ldd	r24, Z+2	; 0x02
    11a0:	93 81       	ldd	r25, Z+3	; 0x03
    11a2:	4a cf       	rjmp	.-364    	; 0x1038 <__stack+0x739>
    11a4:	0e 94 87 0e 	call	0x1d0e	; 0x1d0e <StackPop>
    11a8:	6b 01       	movw	r12, r22
    11aa:	7c 01       	movw	r14, r24
    11ac:	0e 94 87 0e 	call	0x1d0e	; 0x1d0e <StackPop>
    11b0:	cb 01       	movw	r24, r22
    11b2:	0e 94 07 0d 	call	0x1a0e	; 0x1a0e <HeapGetAddress>
    11b6:	f4 01       	movw	r30, r8
    11b8:	31 96       	adiw	r30, 0x01	; 1
    11ba:	ee 0f       	add	r30, r30
    11bc:	ff 1f       	adc	r31, r31
    11be:	ee 0f       	add	r30, r30
    11c0:	ff 1f       	adc	r31, r31
    11c2:	e8 0f       	add	r30, r24
    11c4:	f9 1f       	adc	r31, r25
    11c6:	c0 82       	st	Z, r12
    11c8:	d1 82       	std	Z+1, r13	; 0x01
    11ca:	e2 82       	std	Z+2, r14	; 0x02
    11cc:	f3 82       	std	Z+3, r15	; 0x03
    11ce:	36 cf       	rjmp	.-404    	; 0x103c <__stack+0x73d>
    11d0:	4a 8b       	std	Y+18, r20	; 0x12
    11d2:	0e 94 87 0e 	call	0x1d0e	; 0x1d0e <StackPop>
    11d6:	4a 89       	ldd	r20, Y+18	; 0x12
    11d8:	0e 94 71 09 	call	0x12e2	; 0x12e2 <ArrayNew>
    11dc:	bc 01       	movw	r22, r24
    11de:	80 e0       	ldi	r24, 0x00	; 0
    11e0:	90 e0       	ldi	r25, 0x00	; 0
    11e2:	90 68       	ori	r25, 0x80	; 128
    11e4:	38 cf       	rjmp	.-400    	; 0x1056 <__stack+0x757>
    11e6:	0e 94 87 0e 	call	0x1d0e	; 0x1d0e <StackPop>
    11ea:	cb 01       	movw	r24, r22
    11ec:	0e 94 9d 09 	call	0x133a	; 0x133a <ArrayLen>
    11f0:	25 c0       	rjmp	.+74     	; 0x123c <__stack+0x93d>
    11f2:	0e 94 96 0e 	call	0x1d2c	; 0x1d2c <StackPopInt>
    11f6:	2b 01       	movw	r4, r22
    11f8:	3c 01       	movw	r6, r24
    11fa:	0e 94 96 0e 	call	0x1d2c	; 0x1d2c <StackPopInt>
    11fe:	6b 01       	movw	r12, r22
    1200:	7c 01       	movw	r14, r24
    1202:	0e 94 87 0e 	call	0x1d0e	; 0x1d0e <StackPop>
    1206:	dc 01       	movw	r26, r24
    1208:	cb 01       	movw	r24, r22
    120a:	93 01       	movw	r18, r6
    120c:	82 01       	movw	r16, r4
    120e:	b7 01       	movw	r22, r14
    1210:	a6 01       	movw	r20, r12
    1212:	0e 94 ee 09 	call	0x13dc	; 0x13dc <ArraySetIntValue>
    1216:	18 c0       	rjmp	.+48     	; 0x1248 <__stack+0x949>
    1218:	0e 94 96 0e 	call	0x1d2c	; 0x1d2c <StackPopInt>
    121c:	6b 01       	movw	r12, r22
    121e:	7c 01       	movw	r14, r24
    1220:	0e 94 87 0e 	call	0x1d0e	; 0x1d0e <StackPop>
    1224:	dc 01       	movw	r26, r24
    1226:	cb 01       	movw	r24, r22
    1228:	b7 01       	movw	r22, r14
    122a:	a6 01       	movw	r20, r12
    122c:	0e 94 d5 09 	call	0x13aa	; 0x13aa <ArrayGetByteValue>
    1230:	68 2f       	mov	r22, r24
    1232:	77 27       	eor	r23, r23
    1234:	67 fd       	sbrc	r22, 7
    1236:	70 95       	com	r23
    1238:	87 2f       	mov	r24, r23
    123a:	97 2f       	mov	r25, r23
    123c:	0e 94 77 0e 	call	0x1cee	; 0x1cee <StackPush>
    1240:	03 c0       	rjmp	.+6      	; 0x1248 <__stack+0x949>
    1242:	82 e1       	ldi	r24, 0x12	; 18
    1244:	0e 94 3c 0a 	call	0x1478	; 0x1478 <HandleError>
    1248:	81 e0       	ldi	r24, 0x01	; 1
    124a:	02 c0       	rjmp	.+4      	; 0x1250 <__stack+0x951>
    124c:	83 e0       	ldi	r24, 0x03	; 3
    124e:	19 86       	std	Y+9, r1	; 0x09
    1250:	28 0e       	add	r2, r24
    1252:	31 1c       	adc	r3, r1
    1254:	99 85       	ldd	r25, Y+9	; 0x09
    1256:	9c 3a       	cpi	r25, 0xAC	; 172
    1258:	19 f0       	breq	.+6      	; 0x1260 <__stack+0x961>
    125a:	91 3b       	cpi	r25, 0xB1	; 177
    125c:	09 f0       	breq	.+2      	; 0x1260 <__stack+0x961>
    125e:	7e cb       	rjmp	.-2308   	; 0x95c <__stack+0x5d>
    1260:	8f 81       	ldd	r24, Y+7	; 0x07
    1262:	81 95       	neg	r24
    1264:	0e 94 e2 0e 	call	0x1dc4	; 0x1dc4 <StackAddToSp>
    1268:	2f 81       	ldd	r18, Y+7	; 0x07
    126a:	88 85       	ldd	r24, Y+8	; 0x08
    126c:	90 e0       	ldi	r25, 0x00	; 0
    126e:	82 0f       	add	r24, r18
    1270:	91 1d       	adc	r25, r1
    1272:	2e 81       	ldd	r18, Y+6	; 0x06
    1274:	82 0f       	add	r24, r18
    1276:	91 1d       	adc	r25, r1
    1278:	88 0f       	add	r24, r24
    127a:	99 1f       	adc	r25, r25
    127c:	88 0f       	add	r24, r24
    127e:	99 1f       	adc	r25, r25
    1280:	0e 94 17 0e 	call	0x1c2e	; 0x1c2e <HeapUnsteal>
    1284:	63 96       	adiw	r28, 0x13	; 19
    1286:	0f b6       	in	r0, 0x3f	; 63
    1288:	f8 94       	cli
    128a:	de bf       	out	0x3e, r29	; 62
    128c:	0f be       	out	0x3f, r0	; 63
    128e:	cd bf       	out	0x3d, r28	; 61
    1290:	df 91       	pop	r29
    1292:	cf 91       	pop	r28
    1294:	1f 91       	pop	r17
    1296:	0f 91       	pop	r16
    1298:	ff 90       	pop	r15
    129a:	ef 90       	pop	r14
    129c:	df 90       	pop	r13
    129e:	cf 90       	pop	r12
    12a0:	bf 90       	pop	r11
    12a2:	af 90       	pop	r10
    12a4:	9f 90       	pop	r9
    12a6:	8f 90       	pop	r8
    12a8:	7f 90       	pop	r7
    12aa:	6f 90       	pop	r6
    12ac:	5f 90       	pop	r5
    12ae:	4f 90       	pop	r4
    12b0:	3f 90       	pop	r3
    12b2:	2f 90       	pop	r2
    12b4:	08 95       	ret

000012b6 <ArrayTypeLen>:
    12b6:	88 30       	cpi	r24, 0x08	; 8
    12b8:	59 f0       	breq	.+22     	; 0x12d0 <ArrayTypeLen+0x1a>
    12ba:	20 f4       	brcc	.+8      	; 0x12c4 <ArrayTypeLen+0xe>
    12bc:	84 50       	subi	r24, 0x04	; 4
    12be:	82 30       	cpi	r24, 0x02	; 2
    12c0:	48 f4       	brcc	.+18     	; 0x12d4 <ArrayTypeLen+0x1e>
    12c2:	06 c0       	rjmp	.+12     	; 0x12d0 <ArrayTypeLen+0x1a>
    12c4:	89 30       	cpi	r24, 0x09	; 9
    12c6:	59 f0       	breq	.+22     	; 0x12de <ArrayTypeLen+0x28>
    12c8:	8a 30       	cpi	r24, 0x0A	; 10
    12ca:	21 f4       	brne	.+8      	; 0x12d4 <ArrayTypeLen+0x1e>
    12cc:	84 e0       	ldi	r24, 0x04	; 4
    12ce:	08 95       	ret
    12d0:	81 e0       	ldi	r24, 0x01	; 1
    12d2:	08 95       	ret
    12d4:	88 e0       	ldi	r24, 0x08	; 8
    12d6:	0e 94 3c 0a 	call	0x1478	; 0x1478 <HandleError>
    12da:	80 e0       	ldi	r24, 0x00	; 0
    12dc:	08 95       	ret
    12de:	82 e0       	ldi	r24, 0x02	; 2
    12e0:	08 95       	ret

000012e2 <ArrayNew>:
    12e2:	cf 92       	push	r12
    12e4:	df 92       	push	r13
    12e6:	ef 92       	push	r14
    12e8:	ff 92       	push	r15
    12ea:	cf 93       	push	r28
    12ec:	df 93       	push	r29
    12ee:	1f 92       	push	r1
    12f0:	cd b7       	in	r28, 0x3d	; 61
    12f2:	de b7       	in	r29, 0x3e	; 62
    12f4:	6b 01       	movw	r12, r22
    12f6:	7c 01       	movw	r14, r24
    12f8:	84 2f       	mov	r24, r20
    12fa:	49 83       	std	Y+1, r20	; 0x01
    12fc:	0e 94 5b 09 	call	0x12b6	; 0x12b6 <ArrayTypeLen>
    1300:	28 2f       	mov	r18, r24
    1302:	30 e0       	ldi	r19, 0x00	; 0
    1304:	2c 9d       	mul	r18, r12
    1306:	b0 01       	movw	r22, r0
    1308:	2d 9d       	mul	r18, r13
    130a:	70 0d       	add	r23, r0
    130c:	3c 9d       	mul	r19, r12
    130e:	70 0d       	add	r23, r0
    1310:	11 24       	eor	r1, r1
    1312:	6f 5f       	subi	r22, 0xFF	; 255
    1314:	7f 4f       	sbci	r23, 0xFF	; 255
    1316:	80 e0       	ldi	r24, 0x00	; 0
    1318:	0e 94 7d 0d 	call	0x1afa	; 0x1afa <HeapAlloc>
    131c:	7c 01       	movw	r14, r24
    131e:	0e 94 07 0d 	call	0x1a0e	; 0x1a0e <HeapGetAddress>
    1322:	49 81       	ldd	r20, Y+1	; 0x01
    1324:	fc 01       	movw	r30, r24
    1326:	40 83       	st	Z, r20
    1328:	c7 01       	movw	r24, r14
    132a:	0f 90       	pop	r0
    132c:	df 91       	pop	r29
    132e:	cf 91       	pop	r28
    1330:	ff 90       	pop	r15
    1332:	ef 90       	pop	r14
    1334:	df 90       	pop	r13
    1336:	cf 90       	pop	r12
    1338:	08 95       	ret

0000133a <ArrayLen>:
    133a:	0f 93       	push	r16
    133c:	1f 93       	push	r17
    133e:	cf 93       	push	r28
    1340:	df 93       	push	r29
    1342:	ec 01       	movw	r28, r24
    1344:	0e 94 ae 0c 	call	0x195c	; 0x195c <HeapGetLength>
    1348:	8c 01       	movw	r16, r24
    134a:	ce 01       	movw	r24, r28
    134c:	0e 94 07 0d 	call	0x1a0e	; 0x1a0e <HeapGetAddress>
    1350:	fc 01       	movw	r30, r24
    1352:	80 81       	ld	r24, Z
    1354:	0e 94 5b 09 	call	0x12b6	; 0x12b6 <ArrayTypeLen>
    1358:	68 2f       	mov	r22, r24
    135a:	70 e0       	ldi	r23, 0x00	; 0
    135c:	c8 01       	movw	r24, r16
    135e:	0e 94 71 0f 	call	0x1ee2	; 0x1ee2 <__udivmodhi4>
    1362:	80 e0       	ldi	r24, 0x00	; 0
    1364:	90 e0       	ldi	r25, 0x00	; 0
    1366:	df 91       	pop	r29
    1368:	cf 91       	pop	r28
    136a:	1f 91       	pop	r17
    136c:	0f 91       	pop	r16
    136e:	08 95       	ret

00001370 <ArraySetByteValue>:
    1370:	cf 93       	push	r28
    1372:	df 93       	push	r29
    1374:	00 d0       	rcall	.+0      	; 0x1376 <ArraySetByteValue+0x6>
    1376:	00 d0       	rcall	.+0      	; 0x1378 <ArraySetByteValue+0x8>
    1378:	1f 92       	push	r1
    137a:	cd b7       	in	r28, 0x3d	; 61
    137c:	de b7       	in	r29, 0x3e	; 62
    137e:	2d 83       	std	Y+5, r18	; 0x05
    1380:	49 83       	std	Y+1, r20	; 0x01
    1382:	5a 83       	std	Y+2, r21	; 0x02
    1384:	6b 83       	std	Y+3, r22	; 0x03
    1386:	7c 83       	std	Y+4, r23	; 0x04
    1388:	0e 94 07 0d 	call	0x1a0e	; 0x1a0e <HeapGetAddress>
    138c:	49 81       	ldd	r20, Y+1	; 0x01
    138e:	5a 81       	ldd	r21, Y+2	; 0x02
    1390:	84 0f       	add	r24, r20
    1392:	95 1f       	adc	r25, r21
    1394:	2d 81       	ldd	r18, Y+5	; 0x05
    1396:	fc 01       	movw	r30, r24
    1398:	21 83       	std	Z+1, r18	; 0x01
    139a:	0f 90       	pop	r0
    139c:	0f 90       	pop	r0
    139e:	0f 90       	pop	r0
    13a0:	0f 90       	pop	r0
    13a2:	0f 90       	pop	r0
    13a4:	df 91       	pop	r29
    13a6:	cf 91       	pop	r28
    13a8:	08 95       	ret

000013aa <ArrayGetByteValue>:
    13aa:	cf 93       	push	r28
    13ac:	df 93       	push	r29
    13ae:	00 d0       	rcall	.+0      	; 0x13b0 <ArrayGetByteValue+0x6>
    13b0:	00 d0       	rcall	.+0      	; 0x13b2 <ArrayGetByteValue+0x8>
    13b2:	cd b7       	in	r28, 0x3d	; 61
    13b4:	de b7       	in	r29, 0x3e	; 62
    13b6:	49 83       	std	Y+1, r20	; 0x01
    13b8:	5a 83       	std	Y+2, r21	; 0x02
    13ba:	6b 83       	std	Y+3, r22	; 0x03
    13bc:	7c 83       	std	Y+4, r23	; 0x04
    13be:	0e 94 07 0d 	call	0x1a0e	; 0x1a0e <HeapGetAddress>
    13c2:	49 81       	ldd	r20, Y+1	; 0x01
    13c4:	5a 81       	ldd	r21, Y+2	; 0x02
    13c6:	84 0f       	add	r24, r20
    13c8:	95 1f       	adc	r25, r21
    13ca:	fc 01       	movw	r30, r24
    13cc:	81 81       	ldd	r24, Z+1	; 0x01
    13ce:	0f 90       	pop	r0
    13d0:	0f 90       	pop	r0
    13d2:	0f 90       	pop	r0
    13d4:	0f 90       	pop	r0
    13d6:	df 91       	pop	r29
    13d8:	cf 91       	pop	r28
    13da:	08 95       	ret

000013dc <ArraySetIntValue>:
    13dc:	cf 92       	push	r12
    13de:	df 92       	push	r13
    13e0:	ef 92       	push	r14
    13e2:	ff 92       	push	r15
    13e4:	0f 93       	push	r16
    13e6:	1f 93       	push	r17
    13e8:	cf 93       	push	r28
    13ea:	df 93       	push	r29
    13ec:	00 d0       	rcall	.+0      	; 0x13ee <ArraySetIntValue+0x12>
    13ee:	00 d0       	rcall	.+0      	; 0x13f0 <ArraySetIntValue+0x14>
    13f0:	cd b7       	in	r28, 0x3d	; 61
    13f2:	de b7       	in	r29, 0x3e	; 62
    13f4:	68 01       	movw	r12, r16
    13f6:	79 01       	movw	r14, r18
    13f8:	49 83       	std	Y+1, r20	; 0x01
    13fa:	5a 83       	std	Y+2, r21	; 0x02
    13fc:	6b 83       	std	Y+3, r22	; 0x03
    13fe:	7c 83       	std	Y+4, r23	; 0x04
    1400:	0e 94 07 0d 	call	0x1a0e	; 0x1a0e <HeapGetAddress>
    1404:	49 81       	ldd	r20, Y+1	; 0x01
    1406:	5a 81       	ldd	r21, Y+2	; 0x02
    1408:	fa 01       	movw	r30, r20
    140a:	ee 0f       	add	r30, r30
    140c:	ff 1f       	adc	r31, r31
    140e:	ee 0f       	add	r30, r30
    1410:	ff 1f       	adc	r31, r31
    1412:	e8 0f       	add	r30, r24
    1414:	f9 1f       	adc	r31, r25
    1416:	c1 82       	std	Z+1, r12	; 0x01
    1418:	d2 82       	std	Z+2, r13	; 0x02
    141a:	e3 82       	std	Z+3, r14	; 0x03
    141c:	f4 82       	std	Z+4, r15	; 0x04
    141e:	0f 90       	pop	r0
    1420:	0f 90       	pop	r0
    1422:	0f 90       	pop	r0
    1424:	0f 90       	pop	r0
    1426:	df 91       	pop	r29
    1428:	cf 91       	pop	r28
    142a:	1f 91       	pop	r17
    142c:	0f 91       	pop	r16
    142e:	ff 90       	pop	r15
    1430:	ef 90       	pop	r14
    1432:	df 90       	pop	r13
    1434:	cf 90       	pop	r12
    1436:	08 95       	ret

00001438 <ArrayGetIntValue>:
    1438:	cf 93       	push	r28
    143a:	df 93       	push	r29
    143c:	00 d0       	rcall	.+0      	; 0x143e <ArrayGetIntValue+0x6>
    143e:	00 d0       	rcall	.+0      	; 0x1440 <ArrayGetIntValue+0x8>
    1440:	cd b7       	in	r28, 0x3d	; 61
    1442:	de b7       	in	r29, 0x3e	; 62
    1444:	49 83       	std	Y+1, r20	; 0x01
    1446:	5a 83       	std	Y+2, r21	; 0x02
    1448:	6b 83       	std	Y+3, r22	; 0x03
    144a:	7c 83       	std	Y+4, r23	; 0x04
    144c:	0e 94 07 0d 	call	0x1a0e	; 0x1a0e <HeapGetAddress>
    1450:	49 81       	ldd	r20, Y+1	; 0x01
    1452:	5a 81       	ldd	r21, Y+2	; 0x02
    1454:	fa 01       	movw	r30, r20
    1456:	ee 0f       	add	r30, r30
    1458:	ff 1f       	adc	r31, r31
    145a:	ee 0f       	add	r30, r30
    145c:	ff 1f       	adc	r31, r31
    145e:	e8 0f       	add	r30, r24
    1460:	f9 1f       	adc	r31, r25
    1462:	61 81       	ldd	r22, Z+1	; 0x01
    1464:	72 81       	ldd	r23, Z+2	; 0x02
    1466:	83 81       	ldd	r24, Z+3	; 0x03
    1468:	94 81       	ldd	r25, Z+4	; 0x04
    146a:	0f 90       	pop	r0
    146c:	0f 90       	pop	r0
    146e:	0f 90       	pop	r0
    1470:	0f 90       	pop	r0
    1472:	df 91       	pop	r29
    1474:	cf 91       	pop	r28
    1476:	08 95       	ret

00001478 <HandleError>:
    1478:	0c 94 d2 03 	jmp	0x7a4	; 0x7a4 <PlatformError>

0000147c <CopyCodeToRAM>:
    147c:	cf 92       	push	r12
    147e:	df 92       	push	r13
    1480:	ef 92       	push	r14
    1482:	ff 92       	push	r15
    1484:	0f 93       	push	r16
    1486:	1f 93       	push	r17
    1488:	cf 93       	push	r28
    148a:	df 93       	push	r29
    148c:	7a 01       	movw	r14, r20
    148e:	eb 01       	movw	r28, r22
    1490:	8c 01       	movw	r16, r24
    1492:	6b 01       	movw	r12, r22
    1494:	c4 0e       	add	r12, r20
    1496:	d5 1e       	adc	r13, r21
    1498:	cc 15       	cp	r28, r12
    149a:	dd 05       	cpc	r29, r13
    149c:	41 f0       	breq	.+16     	; 0x14ae <CopyCodeToRAM+0x32>
    149e:	ce 01       	movw	r24, r28
    14a0:	0e 94 56 02 	call	0x4ac	; 0x4ac <FlashReadByte>
    14a4:	f8 01       	movw	r30, r16
    14a6:	81 93       	st	Z+, r24
    14a8:	8f 01       	movw	r16, r30
    14aa:	21 96       	adiw	r28, 0x01	; 1
    14ac:	f5 cf       	rjmp	.-22     	; 0x1498 <CopyCodeToRAM+0x1c>
    14ae:	c7 01       	movw	r24, r14
    14b0:	df 91       	pop	r29
    14b2:	cf 91       	pop	r28
    14b4:	1f 91       	pop	r17
    14b6:	0f 91       	pop	r16
    14b8:	ff 90       	pop	r15
    14ba:	ef 90       	pop	r14
    14bc:	df 90       	pop	r13
    14be:	cf 90       	pop	r12
    14c0:	08 95       	ret

000014c2 <VmFileRead>:
    14c2:	7f 77       	andi	r23, 0x7F	; 127
    14c4:	0c 94 3e 0a 	jmp	0x147c	; 0x147c <CopyCodeToRAM>

000014c8 <VmFileRead08>:
    14c8:	cf 93       	push	r28
    14ca:	df 93       	push	r29
    14cc:	1f 92       	push	r1
    14ce:	cd b7       	in	r28, 0x3d	; 61
    14d0:	de b7       	in	r29, 0x3e	; 62
    14d2:	bc 01       	movw	r22, r24
    14d4:	7f 77       	andi	r23, 0x7F	; 127
    14d6:	41 e0       	ldi	r20, 0x01	; 1
    14d8:	50 e0       	ldi	r21, 0x00	; 0
    14da:	ce 01       	movw	r24, r28
    14dc:	01 96       	adiw	r24, 0x01	; 1
    14de:	0e 94 3e 0a 	call	0x147c	; 0x147c <CopyCodeToRAM>
    14e2:	89 81       	ldd	r24, Y+1	; 0x01
    14e4:	0f 90       	pop	r0
    14e6:	df 91       	pop	r29
    14e8:	cf 91       	pop	r28
    14ea:	08 95       	ret

000014ec <VmFileRead16>:
    14ec:	cf 93       	push	r28
    14ee:	df 93       	push	r29
    14f0:	00 d0       	rcall	.+0      	; 0x14f2 <VmFileRead16+0x6>
    14f2:	cd b7       	in	r28, 0x3d	; 61
    14f4:	de b7       	in	r29, 0x3e	; 62
    14f6:	bc 01       	movw	r22, r24
    14f8:	7f 77       	andi	r23, 0x7F	; 127
    14fa:	42 e0       	ldi	r20, 0x02	; 2
    14fc:	50 e0       	ldi	r21, 0x00	; 0
    14fe:	ce 01       	movw	r24, r28
    1500:	01 96       	adiw	r24, 0x01	; 1
    1502:	0e 94 3e 0a 	call	0x147c	; 0x147c <CopyCodeToRAM>
    1506:	89 81       	ldd	r24, Y+1	; 0x01
    1508:	9a 81       	ldd	r25, Y+2	; 0x02
    150a:	0f 90       	pop	r0
    150c:	0f 90       	pop	r0
    150e:	df 91       	pop	r29
    1510:	cf 91       	pop	r28
    1512:	08 95       	ret

00001514 <VmFileRead32>:
    1514:	cf 93       	push	r28
    1516:	df 93       	push	r29
    1518:	00 d0       	rcall	.+0      	; 0x151a <VmFileRead32+0x6>
    151a:	00 d0       	rcall	.+0      	; 0x151c <VmFileRead32+0x8>
    151c:	cd b7       	in	r28, 0x3d	; 61
    151e:	de b7       	in	r29, 0x3e	; 62
    1520:	bc 01       	movw	r22, r24
    1522:	7f 77       	andi	r23, 0x7F	; 127
    1524:	44 e0       	ldi	r20, 0x04	; 4
    1526:	50 e0       	ldi	r21, 0x00	; 0
    1528:	ce 01       	movw	r24, r28
    152a:	01 96       	adiw	r24, 0x01	; 1
    152c:	0e 94 3e 0a 	call	0x147c	; 0x147c <CopyCodeToRAM>
    1530:	69 81       	ldd	r22, Y+1	; 0x01
    1532:	7a 81       	ldd	r23, Y+2	; 0x02
    1534:	8b 81       	ldd	r24, Y+3	; 0x03
    1536:	9c 81       	ldd	r25, Y+4	; 0x04
    1538:	0f 90       	pop	r0
    153a:	0f 90       	pop	r0
    153c:	0f 90       	pop	r0
    153e:	0f 90       	pop	r0
    1540:	df 91       	pop	r29
    1542:	cf 91       	pop	r28
    1544:	08 95       	ret

00001546 <VmFileWrite08>:
    1546:	08 95       	ret

00001548 <VmFileInitializeWrite>:
    1548:	08 95       	ret

0000154a <VmFileFinalizeWrite>:
    154a:	08 95       	ret

0000154c <VmFileInitialize>:
    154c:	0f 93       	push	r16
    154e:	1f 93       	push	r17
    1550:	8e e3       	ldi	r24, 0x3E	; 62
    1552:	91 e0       	ldi	r25, 0x01	; 1
    1554:	0e 94 8a 0a 	call	0x1514	; 0x1514 <VmFileRead32>
    1558:	8b 01       	movw	r16, r22
    155a:	9c 01       	movw	r18, r24
    155c:	07 73       	andi	r16, 0x37	; 55
    155e:	11 27       	eor	r17, r17
    1560:	22 27       	eor	r18, r18
    1562:	3e 7b       	andi	r19, 0xBE	; 190
    1564:	dc 01       	movw	r26, r24
    1566:	cb 01       	movw	r24, r22
    1568:	be 6b       	ori	r27, 0xBE	; 190
    156a:	08 17       	cp	r16, r24
    156c:	19 07       	cpc	r17, r25
    156e:	2a 07       	cpc	r18, r26
    1570:	3b 07       	cpc	r19, r27
    1572:	11 f0       	breq	.+4      	; 0x1578 <VmFileInitialize+0x2c>
    1574:	8e e0       	ldi	r24, 0x0E	; 14
    1576:	07 c0       	rjmp	.+14     	; 0x1586 <VmFileInitialize+0x3a>
    1578:	82 e4       	ldi	r24, 0x42	; 66
    157a:	91 e0       	ldi	r25, 0x01	; 1
    157c:	0e 94 64 0a 	call	0x14c8	; 0x14c8 <VmFileRead08>
    1580:	82 30       	cpi	r24, 0x02	; 2
    1582:	29 f0       	breq	.+10     	; 0x158e <VmFileInitialize+0x42>
    1584:	8f e0       	ldi	r24, 0x0F	; 15
    1586:	0e 94 3c 0a 	call	0x1478	; 0x1478 <HandleError>
    158a:	80 e0       	ldi	r24, 0x00	; 0
    158c:	14 c0       	rjmp	.+40     	; 0x15b6 <VmFileInitialize+0x6a>
    158e:	88 e4       	ldi	r24, 0x48	; 72
    1590:	91 e0       	ldi	r25, 0x01	; 1
    1592:	0e 94 76 0a 	call	0x14ec	; 0x14ec <VmFileRead16>
    1596:	8c 01       	movw	r16, r24
    1598:	86 e4       	ldi	r24, 0x46	; 70
    159a:	91 e0       	ldi	r25, 0x01	; 1
    159c:	0e 94 76 0a 	call	0x14ec	; 0x14ec <VmFileRead16>
    15a0:	98 01       	movw	r18, r16
    15a2:	28 1b       	sub	r18, r24
    15a4:	39 0b       	sbc	r19, r25
    15a6:	c9 01       	movw	r24, r18
    15a8:	96 95       	lsr	r25
    15aa:	87 95       	ror	r24
    15ac:	96 95       	lsr	r25
    15ae:	87 95       	ror	r24
    15b0:	80 93 df 11 	sts	0x11DF, r24
    15b4:	81 e0       	ldi	r24, 0x01	; 1
    15b6:	1f 91       	pop	r17
    15b8:	0f 91       	pop	r16
    15ba:	08 95       	ret

000015bc <VmFileSaveApp>:
    15bc:	08 95       	ret

000015be <VmFileGetMethodHeader>:
    15be:	cf 93       	push	r28
    15c0:	df 93       	push	r29
    15c2:	ec 01       	movw	r28, r24
    15c4:	8a e4       	ldi	r24, 0x4A	; 74
    15c6:	91 e0       	ldi	r25, 0x01	; 1
    15c8:	0e 94 76 0a 	call	0x14ec	; 0x14ec <VmFileRead16>
    15cc:	9e 01       	movw	r18, r28
    15ce:	43 e0       	ldi	r20, 0x03	; 3
    15d0:	22 0f       	add	r18, r18
    15d2:	33 1f       	adc	r19, r19
    15d4:	4a 95       	dec	r20
    15d6:	e1 f7       	brne	.-8      	; 0x15d0 <VmFileGetMethodHeader+0x12>
    15d8:	28 0f       	add	r18, r24
    15da:	39 1f       	adc	r19, r25
    15dc:	c9 01       	movw	r24, r18
    15de:	82 5c       	subi	r24, 0xC2	; 194
    15e0:	9e 4f       	sbci	r25, 0xFE	; 254
    15e2:	df 91       	pop	r29
    15e4:	cf 91       	pop	r28
    15e6:	08 95       	ret

000015e8 <VmFileGetConstant>:
    15e8:	cf 93       	push	r28
    15ea:	df 93       	push	r29
    15ec:	90 91 df 11 	lds	r25, 0x11DF
    15f0:	c8 2f       	mov	r28, r24
    15f2:	d0 e0       	ldi	r29, 0x00	; 0
    15f4:	89 17       	cp	r24, r25
    15f6:	90 f4       	brcc	.+36     	; 0x161c <VmFileGetConstant+0x34>
    15f8:	86 e4       	ldi	r24, 0x46	; 70
    15fa:	91 e0       	ldi	r25, 0x01	; 1
    15fc:	0e 94 76 0a 	call	0x14ec	; 0x14ec <VmFileRead16>
    1600:	be 01       	movw	r22, r28
    1602:	66 0f       	add	r22, r22
    1604:	77 1f       	adc	r23, r23
    1606:	66 0f       	add	r22, r22
    1608:	77 1f       	adc	r23, r23
    160a:	68 0f       	add	r22, r24
    160c:	79 1f       	adc	r23, r25
    160e:	cb 01       	movw	r24, r22
    1610:	82 5c       	subi	r24, 0xC2	; 194
    1612:	9e 4f       	sbci	r25, 0xFE	; 254
    1614:	df 91       	pop	r29
    1616:	cf 91       	pop	r28
    1618:	0c 94 8a 0a 	jmp	0x1514	; 0x1514 <VmFileRead32>
    161c:	be 01       	movw	r22, r28
    161e:	69 1b       	sub	r22, r25
    1620:	71 09       	sbc	r23, r1
    1622:	88 27       	eor	r24, r24
    1624:	77 fd       	sbrc	r23, 7
    1626:	80 95       	com	r24
    1628:	98 2f       	mov	r25, r24
    162a:	90 6c       	ori	r25, 0xC0	; 192
    162c:	df 91       	pop	r29
    162e:	cf 91       	pop	r28
    1630:	08 95       	ret

00001632 <VmFileJumpToMain>:
    1632:	5f 92       	push	r5
    1634:	6f 92       	push	r6
    1636:	7f 92       	push	r7
    1638:	8f 92       	push	r8
    163a:	9f 92       	push	r9
    163c:	af 92       	push	r10
    163e:	bf 92       	push	r11
    1640:	cf 92       	push	r12
    1642:	df 92       	push	r13
    1644:	ef 92       	push	r14
    1646:	ff 92       	push	r15
    1648:	0f 93       	push	r16
    164a:	1f 93       	push	r17
    164c:	cf 93       	push	r28
    164e:	df 93       	push	r29
    1650:	83 e4       	ldi	r24, 0x43	; 67
    1652:	91 e0       	ldi	r25, 0x01	; 1
    1654:	0e 94 64 0a 	call	0x14c8	; 0x14c8 <VmFileRead08>
    1658:	78 2e       	mov	r7, r24
    165a:	84 e4       	ldi	r24, 0x44	; 68
    165c:	91 e0       	ldi	r25, 0x01	; 1
    165e:	0e 94 76 0a 	call	0x14ec	; 0x14ec <VmFileRead16>
    1662:	7c 01       	movw	r14, r24
    1664:	0e 94 df 0a 	call	0x15be	; 0x15be <VmFileGetMethodHeader>
    1668:	02 96       	adiw	r24, 0x02	; 2
    166a:	0e 94 76 0a 	call	0x14ec	; 0x14ec <VmFileRead16>
    166e:	c9 2f       	mov	r28, r25
    1670:	0e 94 30 04 	call	0x860	; 0x860 <VmNewClass>
    1674:	4c 01       	movw	r8, r24
    1676:	cc 2e       	mov	r12, r28
    1678:	d1 2c       	mov	r13, r1
    167a:	00 e0       	ldi	r16, 0x00	; 0
    167c:	10 e0       	ldi	r17, 0x00	; 0
    167e:	07 15       	cp	r16, r7
    1680:	48 f5       	brcc	.+82     	; 0x16d4 <VmFileJumpToMain+0xa2>
    1682:	c8 01       	movw	r24, r16
    1684:	0e 94 df 0a 	call	0x15be	; 0x15be <VmFileGetMethodHeader>
    1688:	ec 01       	movw	r28, r24
    168a:	0e 94 76 0a 	call	0x14ec	; 0x14ec <VmFileRead16>
    168e:	ce 01       	movw	r24, r28
    1690:	02 96       	adiw	r24, 0x02	; 2
    1692:	0e 94 76 0a 	call	0x14ec	; 0x14ec <VmFileRead16>
    1696:	69 2e       	mov	r6, r25
    1698:	ce 01       	movw	r24, r28
    169a:	04 96       	adiw	r24, 0x04	; 4
    169c:	0e 94 64 0a 	call	0x14c8	; 0x14c8 <VmFileRead08>
    16a0:	58 2e       	mov	r5, r24
    16a2:	ce 01       	movw	r24, r28
    16a4:	05 96       	adiw	r24, 0x05	; 5
    16a6:	0e 94 64 0a 	call	0x14c8	; 0x14c8 <VmFileRead08>
    16aa:	ce 01       	movw	r24, r28
    16ac:	06 96       	adiw	r24, 0x06	; 6
    16ae:	0e 94 64 0a 	call	0x14c8	; 0x14c8 <VmFileRead08>
    16b2:	ce 01       	movw	r24, r28
    16b4:	07 96       	adiw	r24, 0x07	; 7
    16b6:	0e 94 64 0a 	call	0x14c8	; 0x14c8 <VmFileRead08>
    16ba:	50 fe       	sbrs	r5, 0
    16bc:	08 c0       	rjmp	.+16     	; 0x16ce <VmFileJumpToMain+0x9c>
    16be:	a6 2c       	mov	r10, r6
    16c0:	b1 2c       	mov	r11, r1
    16c2:	ca 14       	cp	r12, r10
    16c4:	db 04       	cpc	r13, r11
    16c6:	19 f4       	brne	.+6      	; 0x16ce <VmFileJumpToMain+0x9c>
    16c8:	c8 01       	movw	r24, r16
    16ca:	0e 94 64 04 	call	0x8c8	; 0x8c8 <VmRunMethod>
    16ce:	0f 5f       	subi	r16, 0xFF	; 255
    16d0:	1f 4f       	sbci	r17, 0xFF	; 255
    16d2:	d5 cf       	rjmp	.-86     	; 0x167e <VmFileJumpToMain+0x4c>
    16d4:	81 e0       	ldi	r24, 0x01	; 1
    16d6:	90 e0       	ldi	r25, 0x00	; 0
    16d8:	0e 94 57 0c 	call	0x18ae	; 0x18ae <HeapSearch>
    16dc:	82 e0       	ldi	r24, 0x02	; 2
    16de:	90 e0       	ldi	r25, 0x00	; 0
    16e0:	0e 94 57 0c 	call	0x18ae	; 0x18ae <HeapSearch>
    16e4:	b4 01       	movw	r22, r8
    16e6:	80 e0       	ldi	r24, 0x00	; 0
    16e8:	90 e0       	ldi	r25, 0x00	; 0
    16ea:	0e 94 77 0e 	call	0x1cee	; 0x1cee <StackPush>
    16ee:	c7 01       	movw	r24, r14
    16f0:	df 91       	pop	r29
    16f2:	cf 91       	pop	r28
    16f4:	1f 91       	pop	r17
    16f6:	0f 91       	pop	r16
    16f8:	ff 90       	pop	r15
    16fa:	ef 90       	pop	r14
    16fc:	df 90       	pop	r13
    16fe:	cf 90       	pop	r12
    1700:	bf 90       	pop	r11
    1702:	af 90       	pop	r10
    1704:	9f 90       	pop	r9
    1706:	8f 90       	pop	r8
    1708:	7f 90       	pop	r7
    170a:	6f 90       	pop	r6
    170c:	5f 90       	pop	r5
    170e:	0c 94 64 04 	jmp	0x8c8	; 0x8c8 <VmRunMethod>

00001712 <VmFileGetAddress>:
    1712:	0f 93       	push	r16
    1714:	1f 93       	push	r17
    1716:	cf 93       	push	r28
    1718:	df 93       	push	r29
    171a:	8c 01       	movw	r16, r24
    171c:	88 e4       	ldi	r24, 0x48	; 72
    171e:	91 e0       	ldi	r25, 0x01	; 1
    1720:	0e 94 76 0a 	call	0x14ec	; 0x14ec <VmFileRead16>
    1724:	ec 01       	movw	r28, r24
    1726:	c2 5c       	subi	r28, 0xC2	; 194
    1728:	de 4f       	sbci	r29, 0xFE	; 254
    172a:	c8 01       	movw	r24, r16
    172c:	88 0f       	add	r24, r24
    172e:	99 1f       	adc	r25, r25
    1730:	8c 0f       	add	r24, r28
    1732:	9d 1f       	adc	r25, r29
    1734:	0e 94 76 0a 	call	0x14ec	; 0x14ec <VmFileRead16>
    1738:	8c 0f       	add	r24, r28
    173a:	9d 1f       	adc	r25, r29
    173c:	df 91       	pop	r29
    173e:	cf 91       	pop	r28
    1740:	1f 91       	pop	r17
    1742:	0f 91       	pop	r16
    1744:	08 95       	ret

00001746 <VmFileGetClassFieldCount>:
    1746:	90 e0       	ldi	r25, 0x00	; 0
    1748:	88 0f       	add	r24, r24
    174a:	99 1f       	adc	r25, r25
    174c:	82 5b       	subi	r24, 0xB2	; 178
    174e:	9e 4f       	sbci	r25, 0xFE	; 254
    1750:	0c 94 64 0a 	jmp	0x14c8	; 0x14c8 <VmFileRead08>

00001754 <VmFileGetStaticFieldCount>:
    1754:	8c e4       	ldi	r24, 0x4C	; 76
    1756:	91 e0       	ldi	r25, 0x01	; 1
    1758:	0c 94 64 0a 	jmp	0x14c8	; 0x14c8 <VmFileRead08>

0000175c <VmFileGetMethodByFixedClassAndId>:
    175c:	df 92       	push	r13
    175e:	ef 92       	push	r14
    1760:	ff 92       	push	r15
    1762:	0f 93       	push	r16
    1764:	1f 93       	push	r17
    1766:	cf 93       	push	r28
    1768:	df 93       	push	r29
    176a:	cd b7       	in	r28, 0x3d	; 61
    176c:	de b7       	in	r29, 0x3e	; 62
    176e:	28 97       	sbiw	r28, 0x08	; 8
    1770:	0f b6       	in	r0, 0x3f	; 63
    1772:	f8 94       	cli
    1774:	de bf       	out	0x3e, r29	; 62
    1776:	0f be       	out	0x3f, r0	; 63
    1778:	cd bf       	out	0x3d, r28	; 61
    177a:	d1 2c       	mov	r13, r1
    177c:	08 2f       	mov	r16, r24
    177e:	10 e0       	ldi	r17, 0x00	; 0
    1780:	e6 2e       	mov	r14, r22
    1782:	f1 2c       	mov	r15, r1
    1784:	83 e4       	ldi	r24, 0x43	; 67
    1786:	91 e0       	ldi	r25, 0x01	; 1
    1788:	0e 94 64 0a 	call	0x14c8	; 0x14c8 <VmFileRead08>
    178c:	d8 16       	cp	r13, r24
    178e:	c0 f4       	brcc	.+48     	; 0x17c0 <VmFileGetMethodByFixedClassAndId+0x64>
    1790:	8d 2d       	mov	r24, r13
    1792:	90 e0       	ldi	r25, 0x00	; 0
    1794:	0e 94 df 0a 	call	0x15be	; 0x15be <VmFileGetMethodHeader>
    1798:	bc 01       	movw	r22, r24
    179a:	48 e0       	ldi	r20, 0x08	; 8
    179c:	50 e0       	ldi	r21, 0x00	; 0
    179e:	ce 01       	movw	r24, r28
    17a0:	01 96       	adiw	r24, 0x01	; 1
    17a2:	0e 94 61 0a 	call	0x14c2	; 0x14c2 <VmFileRead>
    17a6:	2b 81       	ldd	r18, Y+3	; 0x03
    17a8:	3c 81       	ldd	r19, Y+4	; 0x04
    17aa:	43 2f       	mov	r20, r19
    17ac:	55 27       	eor	r21, r21
    17ae:	40 17       	cp	r20, r16
    17b0:	51 07       	cpc	r21, r17
    17b2:	21 f4       	brne	.+8      	; 0x17bc <VmFileGetMethodByFixedClassAndId+0x60>
    17b4:	33 27       	eor	r19, r19
    17b6:	2e 15       	cp	r18, r14
    17b8:	3f 05       	cpc	r19, r15
    17ba:	21 f0       	breq	.+8      	; 0x17c4 <VmFileGetMethodByFixedClassAndId+0x68>
    17bc:	d3 94       	inc	r13
    17be:	e2 cf       	rjmp	.-60     	; 0x1784 <VmFileGetMethodByFixedClassAndId+0x28>
    17c0:	8f ef       	ldi	r24, 0xFF	; 255
    17c2:	01 c0       	rjmp	.+2      	; 0x17c6 <VmFileGetMethodByFixedClassAndId+0x6a>
    17c4:	8d 2d       	mov	r24, r13
    17c6:	28 96       	adiw	r28, 0x08	; 8
    17c8:	0f b6       	in	r0, 0x3f	; 63
    17ca:	f8 94       	cli
    17cc:	de bf       	out	0x3e, r29	; 62
    17ce:	0f be       	out	0x3f, r0	; 63
    17d0:	cd bf       	out	0x3d, r28	; 61
    17d2:	df 91       	pop	r29
    17d4:	cf 91       	pop	r28
    17d6:	1f 91       	pop	r17
    17d8:	0f 91       	pop	r16
    17da:	ff 90       	pop	r15
    17dc:	ef 90       	pop	r14
    17de:	df 90       	pop	r13
    17e0:	08 95       	ret

000017e2 <VmFileGetMethodByClassAndId>:
    17e2:	cf 93       	push	r28
    17e4:	df 93       	push	r29
    17e6:	c8 2f       	mov	r28, r24
    17e8:	d6 2f       	mov	r29, r22
    17ea:	6d 2f       	mov	r22, r29
    17ec:	8c 2f       	mov	r24, r28
    17ee:	0e 94 ae 0b 	call	0x175c	; 0x175c <VmFileGetMethodByFixedClassAndId>
    17f2:	8f 3f       	cpi	r24, 0xFF	; 255
    17f4:	61 f4       	brne	.+24     	; 0x180e <VmFileGetMethodByClassAndId+0x2c>
    17f6:	80 91 4d 01 	lds	r24, 0x014D
    17fa:	90 91 4e 01 	lds	r25, 0x014E
    17fe:	8c 0f       	add	r24, r28
    1800:	91 1d       	adc	r25, r1
    1802:	8c 0f       	add	r24, r28
    1804:	91 1d       	adc	r25, r1
    1806:	0e 94 64 0a 	call	0x14c8	; 0x14c8 <VmFileRead08>
    180a:	c8 2f       	mov	r28, r24
    180c:	ee cf       	rjmp	.-36     	; 0x17ea <VmFileGetMethodByClassAndId+0x8>
    180e:	df 91       	pop	r29
    1810:	cf 91       	pop	r28
    1812:	08 95       	ret

00001814 <HeapCopyMemory>:
    1814:	64 0f       	add	r22, r20
    1816:	75 1f       	adc	r23, r21
    1818:	fc 01       	movw	r30, r24
    181a:	e4 0f       	add	r30, r20
    181c:	f5 1f       	adc	r31, r21
    181e:	cb 01       	movw	r24, r22
    1820:	84 1b       	sub	r24, r20
    1822:	95 0b       	sbc	r25, r21
    1824:	68 17       	cp	r22, r24
    1826:	79 07       	cpc	r23, r25
    1828:	29 f0       	breq	.+10     	; 0x1834 <HeapCopyMemory+0x20>
    182a:	db 01       	movw	r26, r22
    182c:	2e 91       	ld	r18, -X
    182e:	bd 01       	movw	r22, r26
    1830:	22 93       	st	-Z, r18
    1832:	f8 cf       	rjmp	.-16     	; 0x1824 <HeapCopyMemory+0x10>
    1834:	08 95       	ret

00001836 <HeapShow>:
    1836:	ef 92       	push	r14
    1838:	ff 92       	push	r15
    183a:	0f 93       	push	r16
    183c:	1f 93       	push	r17
    183e:	cf 93       	push	r28
    1840:	df 93       	push	r29
    1842:	c0 91 3e 11 	lds	r28, 0x113E
    1846:	d0 91 3f 11 	lds	r29, 0x113F
    184a:	e1 2c       	mov	r14, r1
    184c:	8f e0       	ldi	r24, 0x0F	; 15
    184e:	f8 2e       	mov	r15, r24
    1850:	c1 15       	cp	r28, r1
    1852:	ff e0       	ldi	r31, 0x0F	; 15
    1854:	df 07       	cpc	r29, r31
    1856:	20 f5       	brcc	.+72     	; 0x18a0 <HeapShow+0x6a>
    1858:	8e 01       	movw	r16, r28
    185a:	00 52       	subi	r16, 0x20	; 32
    185c:	1e 4e       	sbci	r17, 0xEE	; 238
    185e:	f8 01       	movw	r30, r16
    1860:	80 81       	ld	r24, Z
    1862:	91 81       	ldd	r25, Z+1	; 0x01
    1864:	89 2b       	or	r24, r25
    1866:	41 f0       	breq	.+16     	; 0x1878 <HeapShow+0x42>
    1868:	84 81       	ldd	r24, Z+4	; 0x04
    186a:	95 81       	ldd	r25, Z+5	; 0x05
    186c:	81 30       	cpi	r24, 0x01	; 1
    186e:	9f 40       	sbci	r25, 0x0F	; 15
    1870:	18 f0       	brcs	.+6      	; 0x1878 <HeapShow+0x42>
    1872:	81 e0       	ldi	r24, 0x01	; 1
    1874:	0e 94 3c 0a 	call	0x1478	; 0x1478 <HandleError>
    1878:	f8 01       	movw	r30, r16
    187a:	84 81       	ldd	r24, Z+4	; 0x04
    187c:	95 81       	ldd	r25, Z+5	; 0x05
    187e:	06 96       	adiw	r24, 0x06	; 6
    1880:	97 01       	movw	r18, r14
    1882:	2c 1b       	sub	r18, r28
    1884:	3d 0b       	sbc	r19, r29
    1886:	28 17       	cp	r18, r24
    1888:	39 07       	cpc	r19, r25
    188a:	18 f4       	brcc	.+6      	; 0x1892 <HeapShow+0x5c>
    188c:	82 e0       	ldi	r24, 0x02	; 2
    188e:	0e 94 3c 0a 	call	0x1478	; 0x1478 <HandleError>
    1892:	f8 01       	movw	r30, r16
    1894:	84 81       	ldd	r24, Z+4	; 0x04
    1896:	95 81       	ldd	r25, Z+5	; 0x05
    1898:	06 96       	adiw	r24, 0x06	; 6
    189a:	c8 0f       	add	r28, r24
    189c:	d9 1f       	adc	r29, r25
    189e:	d8 cf       	rjmp	.-80     	; 0x1850 <HeapShow+0x1a>
    18a0:	df 91       	pop	r29
    18a2:	cf 91       	pop	r28
    18a4:	1f 91       	pop	r17
    18a6:	0f 91       	pop	r16
    18a8:	ff 90       	pop	r15
    18aa:	ef 90       	pop	r14
    18ac:	08 95       	ret

000018ae <HeapSearch>:
    18ae:	20 91 3e 11 	lds	r18, 0x113E
    18b2:	30 91 3f 11 	lds	r19, 0x113F
    18b6:	21 15       	cp	r18, r1
    18b8:	4f e0       	ldi	r20, 0x0F	; 15
    18ba:	34 07       	cpc	r19, r20
    18bc:	78 f4       	brcc	.+30     	; 0x18dc <HeapSearch+0x2e>
    18be:	f9 01       	movw	r30, r18
    18c0:	e0 52       	subi	r30, 0x20	; 32
    18c2:	fe 4e       	sbci	r31, 0xEE	; 238
    18c4:	40 81       	ld	r20, Z
    18c6:	51 81       	ldd	r21, Z+1	; 0x01
    18c8:	48 17       	cp	r20, r24
    18ca:	59 07       	cpc	r21, r25
    18cc:	51 f0       	breq	.+20     	; 0x18e2 <HeapSearch+0x34>
    18ce:	44 81       	ldd	r20, Z+4	; 0x04
    18d0:	55 81       	ldd	r21, Z+5	; 0x05
    18d2:	4a 5f       	subi	r20, 0xFA	; 250
    18d4:	5f 4f       	sbci	r21, 0xFF	; 255
    18d6:	24 0f       	add	r18, r20
    18d8:	35 1f       	adc	r19, r21
    18da:	ed cf       	rjmp	.-38     	; 0x18b6 <HeapSearch+0x8>
    18dc:	80 e0       	ldi	r24, 0x00	; 0
    18de:	90 e0       	ldi	r25, 0x00	; 0
    18e0:	08 95       	ret
    18e2:	cf 01       	movw	r24, r30
    18e4:	08 95       	ret

000018e6 <HeapNewId>:
    18e6:	cf 93       	push	r28
    18e8:	df 93       	push	r29
    18ea:	c1 e0       	ldi	r28, 0x01	; 1
    18ec:	d0 e0       	ldi	r29, 0x00	; 0
    18ee:	ce 01       	movw	r24, r28
    18f0:	0e 94 57 0c 	call	0x18ae	; 0x18ae <HeapSearch>
    18f4:	89 2b       	or	r24, r25
    18f6:	29 f0       	breq	.+10     	; 0x1902 <HeapNewId+0x1c>
    18f8:	21 96       	adiw	r28, 0x01	; 1
    18fa:	c9 f7       	brne	.-14     	; 0x18ee <HeapNewId+0x8>
    18fc:	80 e0       	ldi	r24, 0x00	; 0
    18fe:	90 e0       	ldi	r25, 0x00	; 0
    1900:	01 c0       	rjmp	.+2      	; 0x1904 <HeapNewId+0x1e>
    1902:	ce 01       	movw	r24, r28
    1904:	df 91       	pop	r29
    1906:	cf 91       	pop	r28
    1908:	08 95       	ret

0000190a <HeapInternalAlloc>:
    190a:	cf 93       	push	r28
    190c:	df 93       	push	r29
    190e:	ea 01       	movw	r28, r20
    1910:	26 96       	adiw	r28, 0x06	; 6
    1912:	20 91 3e 11 	lds	r18, 0x113E
    1916:	30 91 3f 11 	lds	r19, 0x113F
    191a:	d9 01       	movw	r26, r18
    191c:	a0 52       	subi	r26, 0x20	; 32
    191e:	be 4e       	sbci	r27, 0xEE	; 238
    1920:	14 96       	adiw	r26, 0x04	; 4
    1922:	ed 91       	ld	r30, X+
    1924:	fc 91       	ld	r31, X
    1926:	15 97       	sbiw	r26, 0x05	; 5
    1928:	ec 17       	cp	r30, r28
    192a:	fd 07       	cpc	r31, r29
    192c:	98 f0       	brcs	.+38     	; 0x1954 <HeapInternalAlloc+0x4a>
    192e:	ec 1b       	sub	r30, r28
    1930:	fd 0b       	sbc	r31, r29
    1932:	15 96       	adiw	r26, 0x05	; 5
    1934:	fc 93       	st	X, r31
    1936:	ee 93       	st	-X, r30
    1938:	14 97       	sbiw	r26, 0x04	; 4
    193a:	e2 0f       	add	r30, r18
    193c:	f3 1f       	adc	r31, r19
    193e:	ea 51       	subi	r30, 0x1A	; 26
    1940:	fe 4e       	sbci	r31, 0xEE	; 238
    1942:	91 83       	std	Z+1, r25	; 0x01
    1944:	80 83       	st	Z, r24
    1946:	70 e0       	ldi	r23, 0x00	; 0
    1948:	73 83       	std	Z+3, r23	; 0x03
    194a:	62 83       	std	Z+2, r22	; 0x02
    194c:	55 83       	std	Z+5, r21	; 0x05
    194e:	44 83       	std	Z+4, r20	; 0x04
    1950:	81 e0       	ldi	r24, 0x01	; 1
    1952:	01 c0       	rjmp	.+2      	; 0x1956 <HeapInternalAlloc+0x4c>
    1954:	80 e0       	ldi	r24, 0x00	; 0
    1956:	df 91       	pop	r29
    1958:	cf 91       	pop	r28
    195a:	08 95       	ret

0000195c <HeapGetLength>:
    195c:	cf 93       	push	r28
    195e:	df 93       	push	r29
    1960:	0e 94 57 0c 	call	0x18ae	; 0x18ae <HeapSearch>
    1964:	ec 01       	movw	r28, r24
    1966:	00 97       	sbiw	r24, 0x00	; 0
    1968:	19 f4       	brne	.+6      	; 0x1970 <HeapGetLength+0x14>
    196a:	84 e0       	ldi	r24, 0x04	; 4
    196c:	0e 94 3c 0a 	call	0x1478	; 0x1478 <HandleError>
    1970:	8c 81       	ldd	r24, Y+4	; 0x04
    1972:	9d 81       	ldd	r25, Y+5	; 0x05
    1974:	df 91       	pop	r29
    1976:	cf 91       	pop	r28
    1978:	08 95       	ret

0000197a <HeapGetFieldReference>:
    197a:	df 92       	push	r13
    197c:	ef 92       	push	r14
    197e:	ff 92       	push	r15
    1980:	0f 93       	push	r16
    1982:	1f 93       	push	r17
    1984:	cf 93       	push	r28
    1986:	df 93       	push	r29
    1988:	a0 e0       	ldi	r26, 0x00	; 0
    198a:	b0 e0       	ldi	r27, 0x00	; 0
    198c:	b0 68       	ori	r27, 0x80	; 128
    198e:	20 91 3e 11 	lds	r18, 0x113E
    1992:	30 91 3f 11 	lds	r19, 0x113F
    1996:	21 15       	cp	r18, r1
    1998:	4f e0       	ldi	r20, 0x0F	; 15
    199a:	34 07       	cpc	r19, r20
    199c:	50 f5       	brcc	.+84     	; 0x19f2 <HeapGetFieldReference+0x78>
    199e:	f9 01       	movw	r30, r18
    19a0:	e0 52       	subi	r30, 0x20	; 32
    19a2:	fe 4e       	sbci	r31, 0xEE	; 238
    19a4:	42 81       	ldd	r20, Z+2	; 0x02
    19a6:	53 81       	ldd	r21, Z+3	; 0x03
    19a8:	04 81       	ldd	r16, Z+4	; 0x04
    19aa:	15 81       	ldd	r17, Z+5	; 0x05
    19ac:	45 2b       	or	r20, r21
    19ae:	e1 f0       	breq	.+56     	; 0x19e8 <HeapGetFieldReference+0x6e>
    19b0:	78 01       	movw	r14, r16
    19b2:	f6 94       	lsr	r15
    19b4:	e7 94       	ror	r14
    19b6:	f6 94       	lsr	r15
    19b8:	e7 94       	ror	r14
    19ba:	d1 2c       	mov	r13, r1
    19bc:	cd 2d       	mov	r28, r13
    19be:	d0 e0       	ldi	r29, 0x00	; 0
    19c0:	ce 15       	cp	r28, r14
    19c2:	df 05       	cpc	r29, r15
    19c4:	88 f4       	brcc	.+34     	; 0x19e8 <HeapGetFieldReference+0x6e>
    19c6:	cc 0f       	add	r28, r28
    19c8:	dd 1f       	adc	r29, r29
    19ca:	cc 0f       	add	r28, r28
    19cc:	dd 1f       	adc	r29, r29
    19ce:	ce 0f       	add	r28, r30
    19d0:	df 1f       	adc	r29, r31
    19d2:	4e 81       	ldd	r20, Y+6	; 0x06
    19d4:	5f 81       	ldd	r21, Y+7	; 0x07
    19d6:	68 85       	ldd	r22, Y+8	; 0x08
    19d8:	79 85       	ldd	r23, Y+9	; 0x09
    19da:	48 17       	cp	r20, r24
    19dc:	59 07       	cpc	r21, r25
    19de:	6a 07       	cpc	r22, r26
    19e0:	7b 07       	cpc	r23, r27
    19e2:	49 f0       	breq	.+18     	; 0x19f6 <HeapGetFieldReference+0x7c>
    19e4:	d3 94       	inc	r13
    19e6:	ea cf       	rjmp	.-44     	; 0x19bc <HeapGetFieldReference+0x42>
    19e8:	0a 5f       	subi	r16, 0xFA	; 250
    19ea:	1f 4f       	sbci	r17, 0xFF	; 255
    19ec:	20 0f       	add	r18, r16
    19ee:	31 1f       	adc	r19, r17
    19f0:	d2 cf       	rjmp	.-92     	; 0x1996 <HeapGetFieldReference+0x1c>
    19f2:	80 e0       	ldi	r24, 0x00	; 0
    19f4:	01 c0       	rjmp	.+2      	; 0x19f8 <HeapGetFieldReference+0x7e>
    19f6:	81 e0       	ldi	r24, 0x01	; 1
    19f8:	df 91       	pop	r29
    19fa:	cf 91       	pop	r28
    19fc:	1f 91       	pop	r17
    19fe:	0f 91       	pop	r16
    1a00:	ff 90       	pop	r15
    1a02:	ef 90       	pop	r14
    1a04:	df 90       	pop	r13
    1a06:	08 95       	ret

00001a08 <GetHeapBase>:
    1a08:	80 ee       	ldi	r24, 0xE0	; 224
    1a0a:	91 e1       	ldi	r25, 0x11	; 17
    1a0c:	08 95       	ret

00001a0e <HeapGetAddress>:
    1a0e:	cf 93       	push	r28
    1a10:	df 93       	push	r29
    1a12:	0e 94 57 0c 	call	0x18ae	; 0x18ae <HeapSearch>
    1a16:	ec 01       	movw	r28, r24
    1a18:	00 97       	sbiw	r24, 0x00	; 0
    1a1a:	19 f4       	brne	.+6      	; 0x1a22 <HeapGetAddress+0x14>
    1a1c:	84 e0       	ldi	r24, 0x04	; 4
    1a1e:	0e 94 3c 0a 	call	0x1478	; 0x1478 <HandleError>
    1a22:	ce 01       	movw	r24, r28
    1a24:	06 96       	adiw	r24, 0x06	; 6
    1a26:	df 91       	pop	r29
    1a28:	cf 91       	pop	r28
    1a2a:	08 95       	ret

00001a2c <HeapInitialize>:
    1a2c:	10 92 e1 11 	sts	0x11E1, r1
    1a30:	10 92 e0 11 	sts	0x11E0, r1
    1a34:	10 92 e3 11 	sts	0x11E3, r1
    1a38:	10 92 e2 11 	sts	0x11E2, r1
    1a3c:	8a ef       	ldi	r24, 0xFA	; 250
    1a3e:	9e e0       	ldi	r25, 0x0E	; 14
    1a40:	90 93 e5 11 	sts	0x11E5, r25
    1a44:	80 93 e4 11 	sts	0x11E4, r24
    1a48:	08 95       	ret

00001a4a <HeapCollectGarbage>:
    1a4a:	ef 92       	push	r14
    1a4c:	ff 92       	push	r15
    1a4e:	0f 93       	push	r16
    1a50:	1f 93       	push	r17
    1a52:	cf 93       	push	r28
    1a54:	df 93       	push	r29
    1a56:	c0 91 3e 11 	lds	r28, 0x113E
    1a5a:	d0 91 3f 11 	lds	r29, 0x113F
    1a5e:	c1 15       	cp	r28, r1
    1a60:	ff e0       	ldi	r31, 0x0F	; 15
    1a62:	df 07       	cpc	r29, r31
    1a64:	b8 f5       	brcc	.+110    	; 0x1ad4 <HeapCollectGarbage+0x8a>
    1a66:	ce 01       	movw	r24, r28
    1a68:	80 52       	subi	r24, 0x20	; 32
    1a6a:	9e 4e       	sbci	r25, 0xEE	; 238
    1a6c:	7c 01       	movw	r14, r24
    1a6e:	fc 01       	movw	r30, r24
    1a70:	04 81       	ldd	r16, Z+4	; 0x04
    1a72:	15 81       	ldd	r17, Z+5	; 0x05
    1a74:	0a 5f       	subi	r16, 0xFA	; 250
    1a76:	1f 4f       	sbci	r17, 0xFF	; 255
    1a78:	80 81       	ld	r24, Z
    1a7a:	91 81       	ldd	r25, Z+1	; 0x01
    1a7c:	00 97       	sbiw	r24, 0x00	; 0
    1a7e:	39 f1       	breq	.+78     	; 0x1ace <HeapCollectGarbage+0x84>
    1a80:	0e 94 2a 0f 	call	0x1e54	; 0x1e54 <StackIsHeapIdInUse>
    1a84:	81 11       	cpse	r24, r1
    1a86:	23 c0       	rjmp	.+70     	; 0x1ace <HeapCollectGarbage+0x84>
    1a88:	f7 01       	movw	r30, r14
    1a8a:	80 81       	ld	r24, Z
    1a8c:	91 81       	ldd	r25, Z+1	; 0x01
    1a8e:	0e 94 bd 0c 	call	0x197a	; 0x197a <HeapGetFieldReference>
    1a92:	81 11       	cpse	r24, r1
    1a94:	1c c0       	rjmp	.+56     	; 0x1ace <HeapCollectGarbage+0x84>
    1a96:	80 91 3e 11 	lds	r24, 0x113E
    1a9a:	90 91 3f 11 	lds	r25, 0x113F
    1a9e:	ae 01       	movw	r20, r28
    1aa0:	48 1b       	sub	r20, r24
    1aa2:	59 0b       	sbc	r21, r25
    1aa4:	bc 01       	movw	r22, r24
    1aa6:	60 52       	subi	r22, 0x20	; 32
    1aa8:	7e 4e       	sbci	r23, 0xEE	; 238
    1aaa:	80 0f       	add	r24, r16
    1aac:	91 1f       	adc	r25, r17
    1aae:	80 52       	subi	r24, 0x20	; 32
    1ab0:	9e 4e       	sbci	r25, 0xEE	; 238
    1ab2:	0e 94 0a 0c 	call	0x1814	; 0x1814 <HeapCopyMemory>
    1ab6:	e0 91 3e 11 	lds	r30, 0x113E
    1aba:	f0 91 3f 11 	lds	r31, 0x113F
    1abe:	e0 52       	subi	r30, 0x20	; 32
    1ac0:	fe 4e       	sbci	r31, 0xEE	; 238
    1ac2:	84 81       	ldd	r24, Z+4	; 0x04
    1ac4:	95 81       	ldd	r25, Z+5	; 0x05
    1ac6:	80 0f       	add	r24, r16
    1ac8:	91 1f       	adc	r25, r17
    1aca:	95 83       	std	Z+5, r25	; 0x05
    1acc:	84 83       	std	Z+4, r24	; 0x04
    1ace:	c0 0f       	add	r28, r16
    1ad0:	d1 1f       	adc	r29, r17
    1ad2:	c5 cf       	rjmp	.-118    	; 0x1a5e <HeapCollectGarbage+0x14>
    1ad4:	c1 15       	cp	r28, r1
    1ad6:	df 40       	sbci	r29, 0x0F	; 15
    1ad8:	49 f0       	breq	.+18     	; 0x1aec <HeapCollectGarbage+0xa2>
    1ada:	82 e0       	ldi	r24, 0x02	; 2
    1adc:	df 91       	pop	r29
    1ade:	cf 91       	pop	r28
    1ae0:	1f 91       	pop	r17
    1ae2:	0f 91       	pop	r16
    1ae4:	ff 90       	pop	r15
    1ae6:	ef 90       	pop	r14
    1ae8:	0c 94 3c 0a 	jmp	0x1478	; 0x1478 <HandleError>
    1aec:	df 91       	pop	r29
    1aee:	cf 91       	pop	r28
    1af0:	1f 91       	pop	r17
    1af2:	0f 91       	pop	r16
    1af4:	ff 90       	pop	r15
    1af6:	ef 90       	pop	r14
    1af8:	08 95       	ret

00001afa <HeapAlloc>:
    1afa:	ff 92       	push	r15
    1afc:	0f 93       	push	r16
    1afe:	1f 93       	push	r17
    1b00:	cf 93       	push	r28
    1b02:	df 93       	push	r29
    1b04:	f8 2e       	mov	r15, r24
    1b06:	8b 01       	movw	r16, r22
    1b08:	0e 94 73 0c 	call	0x18e6	; 0x18e6 <HeapNewId>
    1b0c:	ec 01       	movw	r28, r24
    1b0e:	a8 01       	movw	r20, r16
    1b10:	6f 2d       	mov	r22, r15
    1b12:	0e 94 85 0c 	call	0x190a	; 0x190a <HeapInternalAlloc>
    1b16:	81 11       	cpse	r24, r1
    1b18:	0c c0       	rjmp	.+24     	; 0x1b32 <HeapAlloc+0x38>
    1b1a:	0e 94 25 0d 	call	0x1a4a	; 0x1a4a <HeapCollectGarbage>
    1b1e:	a8 01       	movw	r20, r16
    1b20:	6f 2d       	mov	r22, r15
    1b22:	ce 01       	movw	r24, r28
    1b24:	0e 94 85 0c 	call	0x190a	; 0x190a <HeapInternalAlloc>
    1b28:	81 11       	cpse	r24, r1
    1b2a:	03 c0       	rjmp	.+6      	; 0x1b32 <HeapAlloc+0x38>
    1b2c:	83 e0       	ldi	r24, 0x03	; 3
    1b2e:	0e 94 3c 0a 	call	0x1478	; 0x1478 <HandleError>
    1b32:	ce 01       	movw	r24, r28
    1b34:	df 91       	pop	r29
    1b36:	cf 91       	pop	r28
    1b38:	1f 91       	pop	r17
    1b3a:	0f 91       	pop	r16
    1b3c:	ff 90       	pop	r15
    1b3e:	08 95       	ret

00001b40 <HeapRealloc>:
    1b40:	ef 92       	push	r14
    1b42:	ff 92       	push	r15
    1b44:	0f 93       	push	r16
    1b46:	1f 93       	push	r17
    1b48:	cf 93       	push	r28
    1b4a:	df 93       	push	r29
    1b4c:	8c 01       	movw	r16, r24
    1b4e:	7b 01       	movw	r14, r22
    1b50:	e0 91 3e 11 	lds	r30, 0x113E
    1b54:	f0 91 3f 11 	lds	r31, 0x113F
    1b58:	e0 52       	subi	r30, 0x20	; 32
    1b5a:	fe 4e       	sbci	r31, 0xEE	; 238
    1b5c:	cb 01       	movw	r24, r22
    1b5e:	06 96       	adiw	r24, 0x06	; 6
    1b60:	24 81       	ldd	r18, Z+4	; 0x04
    1b62:	35 81       	ldd	r19, Z+5	; 0x05
    1b64:	28 17       	cp	r18, r24
    1b66:	39 07       	cpc	r19, r25
    1b68:	10 f0       	brcs	.+4      	; 0x1b6e <HeapRealloc+0x2e>
    1b6a:	0e 94 25 0d 	call	0x1a4a	; 0x1a4a <HeapCollectGarbage>
    1b6e:	c8 01       	movw	r24, r16
    1b70:	0e 94 57 0c 	call	0x18ae	; 0x18ae <HeapSearch>
    1b74:	ec 01       	movw	r28, r24
    1b76:	a7 01       	movw	r20, r14
    1b78:	6a 81       	ldd	r22, Y+2	; 0x02
    1b7a:	c8 01       	movw	r24, r16
    1b7c:	0e 94 85 0c 	call	0x190a	; 0x190a <HeapInternalAlloc>
    1b80:	81 11       	cpse	r24, r1
    1b82:	03 c0       	rjmp	.+6      	; 0x1b8a <HeapRealloc+0x4a>
    1b84:	83 e0       	ldi	r24, 0x03	; 3
    1b86:	0e 94 3c 0a 	call	0x1478	; 0x1478 <HandleError>
    1b8a:	c8 01       	movw	r24, r16
    1b8c:	0e 94 57 0c 	call	0x18ae	; 0x18ae <HeapSearch>
    1b90:	4c 81       	ldd	r20, Y+4	; 0x04
    1b92:	5d 81       	ldd	r21, Y+5	; 0x05
    1b94:	be 01       	movw	r22, r28
    1b96:	6a 5f       	subi	r22, 0xFA	; 250
    1b98:	7f 4f       	sbci	r23, 0xFF	; 255
    1b9a:	06 96       	adiw	r24, 0x06	; 6
    1b9c:	0e 94 e8 03 	call	0x7d0	; 0x7d0 <UtilsCopyMemory>
    1ba0:	8f ef       	ldi	r24, 0xFF	; 255
    1ba2:	90 e0       	ldi	r25, 0x00	; 0
    1ba4:	99 83       	std	Y+1, r25	; 0x01
    1ba6:	88 83       	st	Y, r24
    1ba8:	df 91       	pop	r29
    1baa:	cf 91       	pop	r28
    1bac:	1f 91       	pop	r17
    1bae:	0f 91       	pop	r16
    1bb0:	ff 90       	pop	r15
    1bb2:	ef 90       	pop	r14
    1bb4:	08 95       	ret

00001bb6 <HeapSteal>:
    1bb6:	0f 93       	push	r16
    1bb8:	1f 93       	push	r17
    1bba:	cf 93       	push	r28
    1bbc:	df 93       	push	r29
    1bbe:	8c 01       	movw	r16, r24
    1bc0:	c0 91 3e 11 	lds	r28, 0x113E
    1bc4:	d0 91 3f 11 	lds	r29, 0x113F
    1bc8:	c0 52       	subi	r28, 0x20	; 32
    1bca:	de 4e       	sbci	r29, 0xEE	; 238
    1bcc:	88 81       	ld	r24, Y
    1bce:	99 81       	ldd	r25, Y+1	; 0x01
    1bd0:	89 2b       	or	r24, r25
    1bd2:	19 f0       	breq	.+6      	; 0x1bda <HeapSteal+0x24>
    1bd4:	82 e0       	ldi	r24, 0x02	; 2
    1bd6:	0e 94 3c 0a 	call	0x1478	; 0x1478 <HandleError>
    1bda:	8c 81       	ldd	r24, Y+4	; 0x04
    1bdc:	9d 81       	ldd	r25, Y+5	; 0x05
    1bde:	80 17       	cp	r24, r16
    1be0:	91 07       	cpc	r25, r17
    1be2:	10 f4       	brcc	.+4      	; 0x1be8 <HeapSteal+0x32>
    1be4:	0e 94 25 0d 	call	0x1a4a	; 0x1a4a <HeapCollectGarbage>
    1be8:	0c 80       	ldd	r0, Y+4	; 0x04
    1bea:	dd 81       	ldd	r29, Y+5	; 0x05
    1bec:	c0 2d       	mov	r28, r0
    1bee:	c0 17       	cp	r28, r16
    1bf0:	d1 07       	cpc	r29, r17
    1bf2:	18 f4       	brcc	.+6      	; 0x1bfa <HeapSteal+0x44>
    1bf4:	85 e0       	ldi	r24, 0x05	; 5
    1bf6:	0e 94 3c 0a 	call	0x1478	; 0x1478 <HandleError>
    1bfa:	80 91 3e 11 	lds	r24, 0x113E
    1bfe:	90 91 3f 11 	lds	r25, 0x113F
    1c02:	80 0f       	add	r24, r16
    1c04:	91 1f       	adc	r25, r17
    1c06:	90 93 3f 11 	sts	0x113F, r25
    1c0a:	80 93 3e 11 	sts	0x113E, r24
    1c0e:	fc 01       	movw	r30, r24
    1c10:	e0 52       	subi	r30, 0x20	; 32
    1c12:	fe 4e       	sbci	r31, 0xEE	; 238
    1c14:	11 82       	std	Z+1, r1	; 0x01
    1c16:	10 82       	st	Z, r1
    1c18:	13 82       	std	Z+3, r1	; 0x03
    1c1a:	12 82       	std	Z+2, r1	; 0x02
    1c1c:	c0 1b       	sub	r28, r16
    1c1e:	d1 0b       	sbc	r29, r17
    1c20:	d5 83       	std	Z+5, r29	; 0x05
    1c22:	c4 83       	std	Z+4, r28	; 0x04
    1c24:	df 91       	pop	r29
    1c26:	cf 91       	pop	r28
    1c28:	1f 91       	pop	r17
    1c2a:	0f 91       	pop	r16
    1c2c:	08 95       	ret

00001c2e <HeapUnsteal>:
    1c2e:	0f 93       	push	r16
    1c30:	1f 93       	push	r17
    1c32:	cf 93       	push	r28
    1c34:	df 93       	push	r29
    1c36:	8c 01       	movw	r16, r24
    1c38:	c0 91 3e 11 	lds	r28, 0x113E
    1c3c:	d0 91 3f 11 	lds	r29, 0x113F
    1c40:	c0 52       	subi	r28, 0x20	; 32
    1c42:	de 4e       	sbci	r29, 0xEE	; 238
    1c44:	88 81       	ld	r24, Y
    1c46:	99 81       	ldd	r25, Y+1	; 0x01
    1c48:	89 2b       	or	r24, r25
    1c4a:	19 f0       	breq	.+6      	; 0x1c52 <HeapUnsteal+0x24>
    1c4c:	82 e0       	ldi	r24, 0x02	; 2
    1c4e:	0e 94 3c 0a 	call	0x1478	; 0x1478 <HandleError>
    1c52:	80 91 3e 11 	lds	r24, 0x113E
    1c56:	90 91 3f 11 	lds	r25, 0x113F
    1c5a:	80 17       	cp	r24, r16
    1c5c:	91 07       	cpc	r25, r17
    1c5e:	18 f4       	brcc	.+6      	; 0x1c66 <HeapUnsteal+0x38>
    1c60:	86 e0       	ldi	r24, 0x06	; 6
    1c62:	0e 94 3c 0a 	call	0x1478	; 0x1478 <HandleError>
    1c66:	8c 81       	ldd	r24, Y+4	; 0x04
    1c68:	9d 81       	ldd	r25, Y+5	; 0x05
    1c6a:	20 91 3e 11 	lds	r18, 0x113E
    1c6e:	30 91 3f 11 	lds	r19, 0x113F
    1c72:	20 1b       	sub	r18, r16
    1c74:	31 0b       	sbc	r19, r17
    1c76:	30 93 3f 11 	sts	0x113F, r19
    1c7a:	20 93 3e 11 	sts	0x113E, r18
    1c7e:	f9 01       	movw	r30, r18
    1c80:	e0 52       	subi	r30, 0x20	; 32
    1c82:	fe 4e       	sbci	r31, 0xEE	; 238
    1c84:	11 82       	std	Z+1, r1	; 0x01
    1c86:	10 82       	st	Z, r1
    1c88:	80 0f       	add	r24, r16
    1c8a:	91 1f       	adc	r25, r17
    1c8c:	95 83       	std	Z+5, r25	; 0x05
    1c8e:	84 83       	std	Z+4, r24	; 0x04
    1c90:	df 91       	pop	r29
    1c92:	cf 91       	pop	r28
    1c94:	1f 91       	pop	r17
    1c96:	0f 91       	pop	r16
    1c98:	08 95       	ret

00001c9a <StackInitialize>:
    1c9a:	cf 93       	push	r28
    1c9c:	df 93       	push	r29
    1c9e:	c8 2f       	mov	r28, r24
    1ca0:	0e 94 04 0d 	call	0x1a08	; 0x1a08 <GetHeapBase>
    1ca4:	90 93 45 11 	sts	0x1145, r25
    1ca8:	80 93 44 11 	sts	0x1144, r24
    1cac:	9c 01       	movw	r18, r24
    1cae:	24 50       	subi	r18, 0x04	; 4
    1cb0:	31 09       	sbc	r19, r1
    1cb2:	30 93 43 11 	sts	0x1143, r19
    1cb6:	20 93 42 11 	sts	0x1142, r18
    1cba:	d0 e0       	ldi	r29, 0x00	; 0
    1cbc:	ce 01       	movw	r24, r28
    1cbe:	01 96       	adiw	r24, 0x01	; 1
    1cc0:	88 0f       	add	r24, r24
    1cc2:	99 1f       	adc	r25, r25
    1cc4:	88 0f       	add	r24, r24
    1cc6:	99 1f       	adc	r25, r25
    1cc8:	0e 94 db 0d 	call	0x1bb6	; 0x1bb6 <HeapSteal>
    1ccc:	cc 0f       	add	r28, r28
    1cce:	dd 1f       	adc	r29, r29
    1cd0:	cc 0f       	add	r28, r28
    1cd2:	dd 1f       	adc	r29, r29
    1cd4:	20 91 42 11 	lds	r18, 0x1142
    1cd8:	30 91 43 11 	lds	r19, 0x1143
    1cdc:	2c 0f       	add	r18, r28
    1cde:	3d 1f       	adc	r19, r29
    1ce0:	30 93 43 11 	sts	0x1143, r19
    1ce4:	20 93 42 11 	sts	0x1142, r18
    1ce8:	df 91       	pop	r29
    1cea:	cf 91       	pop	r28
    1cec:	08 95       	ret

00001cee <StackPush>:
    1cee:	e0 91 42 11 	lds	r30, 0x1142
    1cf2:	f0 91 43 11 	lds	r31, 0x1143
    1cf6:	9f 01       	movw	r18, r30
    1cf8:	2c 5f       	subi	r18, 0xFC	; 252
    1cfa:	3f 4f       	sbci	r19, 0xFF	; 255
    1cfc:	30 93 43 11 	sts	0x1143, r19
    1d00:	20 93 42 11 	sts	0x1142, r18
    1d04:	64 83       	std	Z+4, r22	; 0x04
    1d06:	75 83       	std	Z+5, r23	; 0x05
    1d08:	86 83       	std	Z+6, r24	; 0x06
    1d0a:	97 83       	std	Z+7, r25	; 0x07
    1d0c:	08 95       	ret

00001d0e <StackPop>:
    1d0e:	e0 91 42 11 	lds	r30, 0x1142
    1d12:	f0 91 43 11 	lds	r31, 0x1143
    1d16:	cf 01       	movw	r24, r30
    1d18:	04 97       	sbiw	r24, 0x04	; 4
    1d1a:	90 93 43 11 	sts	0x1143, r25
    1d1e:	80 93 42 11 	sts	0x1142, r24
    1d22:	60 81       	ld	r22, Z
    1d24:	71 81       	ldd	r23, Z+1	; 0x01
    1d26:	82 81       	ldd	r24, Z+2	; 0x02
    1d28:	93 81       	ldd	r25, Z+3	; 0x03
    1d2a:	08 95       	ret

00001d2c <StackPopInt>:
    1d2c:	e0 91 42 11 	lds	r30, 0x1142
    1d30:	f0 91 43 11 	lds	r31, 0x1143
    1d34:	cf 01       	movw	r24, r30
    1d36:	04 97       	sbiw	r24, 0x04	; 4
    1d38:	90 93 43 11 	sts	0x1143, r25
    1d3c:	80 93 42 11 	sts	0x1142, r24
    1d40:	60 81       	ld	r22, Z
    1d42:	71 81       	ldd	r23, Z+1	; 0x01
    1d44:	82 81       	ldd	r24, Z+2	; 0x02
    1d46:	93 81       	ldd	r25, Z+3	; 0x03
    1d48:	0c 94 2d 04 	jmp	0x85a	; 0x85a <VmStackToInt>

00001d4c <StackPeek>:
    1d4c:	e0 91 42 11 	lds	r30, 0x1142
    1d50:	f0 91 43 11 	lds	r31, 0x1143
    1d54:	94 e0       	ldi	r25, 0x04	; 4
    1d56:	89 9f       	mul	r24, r25
    1d58:	e0 19       	sub	r30, r0
    1d5a:	f1 09       	sbc	r31, r1
    1d5c:	11 24       	eor	r1, r1
    1d5e:	60 81       	ld	r22, Z
    1d60:	71 81       	ldd	r23, Z+1	; 0x01
    1d62:	82 81       	ldd	r24, Z+2	; 0x02
    1d64:	93 81       	ldd	r25, Z+3	; 0x03
    1d66:	08 95       	ret

00001d68 <StackPeekInt>:
    1d68:	e0 91 42 11 	lds	r30, 0x1142
    1d6c:	f0 91 43 11 	lds	r31, 0x1143
    1d70:	94 e0       	ldi	r25, 0x04	; 4
    1d72:	89 9f       	mul	r24, r25
    1d74:	e0 19       	sub	r30, r0
    1d76:	f1 09       	sbc	r31, r1
    1d78:	11 24       	eor	r1, r1
    1d7a:	60 81       	ld	r22, Z
    1d7c:	71 81       	ldd	r23, Z+1	; 0x01
    1d7e:	82 81       	ldd	r24, Z+2	; 0x02
    1d80:	93 81       	ldd	r25, Z+3	; 0x03
    1d82:	0c 94 2d 04 	jmp	0x85a	; 0x85a <VmStackToInt>

00001d86 <StackPopAddr>:
    1d86:	e0 91 42 11 	lds	r30, 0x1142
    1d8a:	f0 91 43 11 	lds	r31, 0x1143
    1d8e:	cf 01       	movw	r24, r30
    1d90:	04 97       	sbiw	r24, 0x04	; 4
    1d92:	90 93 43 11 	sts	0x1143, r25
    1d96:	80 93 42 11 	sts	0x1142, r24
    1d9a:	60 81       	ld	r22, Z
    1d9c:	71 81       	ldd	r23, Z+1	; 0x01
    1d9e:	82 81       	ldd	r24, Z+2	; 0x02
    1da0:	93 81       	ldd	r25, Z+3	; 0x03
    1da2:	0c 94 08 04 	jmp	0x810	; 0x810 <VmGetAddress>

00001da6 <StackPeekAddr>:
    1da6:	e0 91 42 11 	lds	r30, 0x1142
    1daa:	f0 91 43 11 	lds	r31, 0x1143
    1dae:	94 e0       	ldi	r25, 0x04	; 4
    1db0:	89 9f       	mul	r24, r25
    1db2:	e0 19       	sub	r30, r0
    1db4:	f1 09       	sbc	r31, r1
    1db6:	11 24       	eor	r1, r1
    1db8:	60 81       	ld	r22, Z
    1dba:	71 81       	ldd	r23, Z+1	; 0x01
    1dbc:	82 81       	ldd	r24, Z+2	; 0x02
    1dbe:	93 81       	ldd	r25, Z+3	; 0x03
    1dc0:	0c 94 08 04 	jmp	0x810	; 0x810 <VmGetAddress>

00001dc4 <StackAddToSp>:
    1dc4:	20 91 42 11 	lds	r18, 0x1142
    1dc8:	30 91 43 11 	lds	r19, 0x1143
    1dcc:	94 e0       	ldi	r25, 0x04	; 4
    1dce:	89 02       	muls	r24, r25
    1dd0:	20 0d       	add	r18, r0
    1dd2:	31 1d       	adc	r19, r1
    1dd4:	11 24       	eor	r1, r1
    1dd6:	30 93 43 11 	sts	0x1143, r19
    1dda:	20 93 42 11 	sts	0x1142, r18
    1dde:	08 95       	ret

00001de0 <GetStackPointer>:
    1de0:	80 91 42 11 	lds	r24, 0x1142
    1de4:	90 91 43 11 	lds	r25, 0x1143
    1de8:	08 95       	ret

00001dea <StackGetStaticVariable>:
    1dea:	88 0f       	add	r24, r24
    1dec:	99 1f       	adc	r25, r25
    1dee:	88 0f       	add	r24, r24
    1df0:	99 1f       	adc	r25, r25
    1df2:	e0 91 44 11 	lds	r30, 0x1144
    1df6:	f0 91 45 11 	lds	r31, 0x1145
    1dfa:	e8 0f       	add	r30, r24
    1dfc:	f9 1f       	adc	r31, r25
    1dfe:	60 81       	ld	r22, Z
    1e00:	71 81       	ldd	r23, Z+1	; 0x01
    1e02:	82 81       	ldd	r24, Z+2	; 0x02
    1e04:	93 81       	ldd	r25, Z+3	; 0x03
    1e06:	08 95       	ret

00001e08 <StackSetStaticVariable>:
    1e08:	88 0f       	add	r24, r24
    1e0a:	99 1f       	adc	r25, r25
    1e0c:	88 0f       	add	r24, r24
    1e0e:	99 1f       	adc	r25, r25
    1e10:	e0 91 44 11 	lds	r30, 0x1144
    1e14:	f0 91 45 11 	lds	r31, 0x1145
    1e18:	e8 0f       	add	r30, r24
    1e1a:	f9 1f       	adc	r31, r25
    1e1c:	40 83       	st	Z, r20
    1e1e:	51 83       	std	Z+1, r21	; 0x01
    1e20:	62 83       	std	Z+2, r22	; 0x02
    1e22:	73 83       	std	Z+3, r23	; 0x03
    1e24:	08 95       	ret

00001e26 <StackSaveBase>:
    1e26:	80 91 42 11 	lds	r24, 0x1142
    1e2a:	90 91 43 11 	lds	r25, 0x1143
    1e2e:	90 93 41 11 	sts	0x1141, r25
    1e32:	80 93 40 11 	sts	0x1140, r24
    1e36:	08 95       	ret

00001e38 <StackIsEmpty>:
    1e38:	81 e0       	ldi	r24, 0x01	; 1
    1e3a:	40 91 42 11 	lds	r20, 0x1142
    1e3e:	50 91 43 11 	lds	r21, 0x1143
    1e42:	20 91 40 11 	lds	r18, 0x1140
    1e46:	30 91 41 11 	lds	r19, 0x1141
    1e4a:	42 17       	cp	r20, r18
    1e4c:	53 07       	cpc	r21, r19
    1e4e:	09 f0       	breq	.+2      	; 0x1e52 <StackIsEmpty+0x1a>
    1e50:	80 e0       	ldi	r24, 0x00	; 0
    1e52:	08 95       	ret

00001e54 <StackIsHeapIdInUse>:
    1e54:	cf 93       	push	r28
    1e56:	df 93       	push	r29
    1e58:	a0 e0       	ldi	r26, 0x00	; 0
    1e5a:	b0 e0       	ldi	r27, 0x00	; 0
    1e5c:	b0 68       	ori	r27, 0x80	; 128
    1e5e:	c0 91 44 11 	lds	r28, 0x1144
    1e62:	d0 91 45 11 	lds	r29, 0x1145
    1e66:	20 91 42 11 	lds	r18, 0x1142
    1e6a:	30 91 43 11 	lds	r19, 0x1143
    1e6e:	2c 1b       	sub	r18, r28
    1e70:	3d 0b       	sbc	r19, r29
    1e72:	35 95       	asr	r19
    1e74:	27 95       	ror	r18
    1e76:	35 95       	asr	r19
    1e78:	27 95       	ror	r18
    1e7a:	2f 5f       	subi	r18, 0xFF	; 255
    1e7c:	3f 4f       	sbci	r19, 0xFF	; 255
    1e7e:	e0 e0       	ldi	r30, 0x00	; 0
    1e80:	f0 e0       	ldi	r31, 0x00	; 0
    1e82:	e2 17       	cp	r30, r18
    1e84:	f3 07       	cpc	r31, r19
    1e86:	58 f4       	brcc	.+22     	; 0x1e9e <StackIsHeapIdInUse+0x4a>
    1e88:	49 91       	ld	r20, Y+
    1e8a:	59 91       	ld	r21, Y+
    1e8c:	69 91       	ld	r22, Y+
    1e8e:	79 91       	ld	r23, Y+
    1e90:	48 17       	cp	r20, r24
    1e92:	59 07       	cpc	r21, r25
    1e94:	6a 07       	cpc	r22, r26
    1e96:	7b 07       	cpc	r23, r27
    1e98:	21 f0       	breq	.+8      	; 0x1ea2 <StackIsHeapIdInUse+0x4e>
    1e9a:	31 96       	adiw	r30, 0x01	; 1
    1e9c:	f2 cf       	rjmp	.-28     	; 0x1e82 <StackIsHeapIdInUse+0x2e>
    1e9e:	80 e0       	ldi	r24, 0x00	; 0
    1ea0:	01 c0       	rjmp	.+2      	; 0x1ea4 <StackIsHeapIdInUse+0x50>
    1ea2:	81 e0       	ldi	r24, 0x01	; 1
    1ea4:	df 91       	pop	r29
    1ea6:	cf 91       	pop	r28
    1ea8:	08 95       	ret

00001eaa <__mulsi3>:
    1eaa:	db 01       	movw	r26, r22
    1eac:	8f 93       	push	r24
    1eae:	9f 93       	push	r25
    1eb0:	0e 94 aa 0f 	call	0x1f54	; 0x1f54 <__muluhisi3>
    1eb4:	bf 91       	pop	r27
    1eb6:	af 91       	pop	r26
    1eb8:	a2 9f       	mul	r26, r18
    1eba:	80 0d       	add	r24, r0
    1ebc:	91 1d       	adc	r25, r1
    1ebe:	a3 9f       	mul	r26, r19
    1ec0:	90 0d       	add	r25, r0
    1ec2:	b2 9f       	mul	r27, r18
    1ec4:	90 0d       	add	r25, r0
    1ec6:	11 24       	eor	r1, r1
    1ec8:	08 95       	ret

00001eca <__udivmodqi4>:
    1eca:	99 1b       	sub	r25, r25
    1ecc:	79 e0       	ldi	r23, 0x09	; 9
    1ece:	04 c0       	rjmp	.+8      	; 0x1ed8 <__udivmodqi4_ep>

00001ed0 <__udivmodqi4_loop>:
    1ed0:	99 1f       	adc	r25, r25
    1ed2:	96 17       	cp	r25, r22
    1ed4:	08 f0       	brcs	.+2      	; 0x1ed8 <__udivmodqi4_ep>
    1ed6:	96 1b       	sub	r25, r22

00001ed8 <__udivmodqi4_ep>:
    1ed8:	88 1f       	adc	r24, r24
    1eda:	7a 95       	dec	r23
    1edc:	c9 f7       	brne	.-14     	; 0x1ed0 <__udivmodqi4_loop>
    1ede:	80 95       	com	r24
    1ee0:	08 95       	ret

00001ee2 <__udivmodhi4>:
    1ee2:	aa 1b       	sub	r26, r26
    1ee4:	bb 1b       	sub	r27, r27
    1ee6:	51 e1       	ldi	r21, 0x11	; 17
    1ee8:	07 c0       	rjmp	.+14     	; 0x1ef8 <__udivmodhi4_ep>

00001eea <__udivmodhi4_loop>:
    1eea:	aa 1f       	adc	r26, r26
    1eec:	bb 1f       	adc	r27, r27
    1eee:	a6 17       	cp	r26, r22
    1ef0:	b7 07       	cpc	r27, r23
    1ef2:	10 f0       	brcs	.+4      	; 0x1ef8 <__udivmodhi4_ep>
    1ef4:	a6 1b       	sub	r26, r22
    1ef6:	b7 0b       	sbc	r27, r23

00001ef8 <__udivmodhi4_ep>:
    1ef8:	88 1f       	adc	r24, r24
    1efa:	99 1f       	adc	r25, r25
    1efc:	5a 95       	dec	r21
    1efe:	a9 f7       	brne	.-22     	; 0x1eea <__udivmodhi4_loop>
    1f00:	80 95       	com	r24
    1f02:	90 95       	com	r25
    1f04:	bc 01       	movw	r22, r24
    1f06:	cd 01       	movw	r24, r26
    1f08:	08 95       	ret

00001f0a <__divmodsi4>:
    1f0a:	05 2e       	mov	r0, r21
    1f0c:	97 fb       	bst	r25, 7
    1f0e:	1e f4       	brtc	.+6      	; 0x1f16 <__divmodsi4+0xc>
    1f10:	00 94       	com	r0
    1f12:	0e 94 9c 0f 	call	0x1f38	; 0x1f38 <__negsi2>
    1f16:	57 fd       	sbrc	r21, 7
    1f18:	07 d0       	rcall	.+14     	; 0x1f28 <__divmodsi4_neg2>
    1f1a:	0e 94 b5 0f 	call	0x1f6a	; 0x1f6a <__udivmodsi4>
    1f1e:	07 fc       	sbrc	r0, 7
    1f20:	03 d0       	rcall	.+6      	; 0x1f28 <__divmodsi4_neg2>
    1f22:	4e f4       	brtc	.+18     	; 0x1f36 <__divmodsi4_exit>
    1f24:	0c 94 9c 0f 	jmp	0x1f38	; 0x1f38 <__negsi2>

00001f28 <__divmodsi4_neg2>:
    1f28:	50 95       	com	r21
    1f2a:	40 95       	com	r20
    1f2c:	30 95       	com	r19
    1f2e:	21 95       	neg	r18
    1f30:	3f 4f       	sbci	r19, 0xFF	; 255
    1f32:	4f 4f       	sbci	r20, 0xFF	; 255
    1f34:	5f 4f       	sbci	r21, 0xFF	; 255

00001f36 <__divmodsi4_exit>:
    1f36:	08 95       	ret

00001f38 <__negsi2>:
    1f38:	90 95       	com	r25
    1f3a:	80 95       	com	r24
    1f3c:	70 95       	com	r23
    1f3e:	61 95       	neg	r22
    1f40:	7f 4f       	sbci	r23, 0xFF	; 255
    1f42:	8f 4f       	sbci	r24, 0xFF	; 255
    1f44:	9f 4f       	sbci	r25, 0xFF	; 255
    1f46:	08 95       	ret

00001f48 <__tablejump2__>:
    1f48:	ee 0f       	add	r30, r30
    1f4a:	ff 1f       	adc	r31, r31

00001f4c <__tablejump__>:
    1f4c:	05 90       	lpm	r0, Z+
    1f4e:	f4 91       	lpm	r31, Z
    1f50:	e0 2d       	mov	r30, r0
    1f52:	09 94       	ijmp

00001f54 <__muluhisi3>:
    1f54:	0e 94 d7 0f 	call	0x1fae	; 0x1fae <__umulhisi3>
    1f58:	a5 9f       	mul	r26, r21
    1f5a:	90 0d       	add	r25, r0
    1f5c:	b4 9f       	mul	r27, r20
    1f5e:	90 0d       	add	r25, r0
    1f60:	a4 9f       	mul	r26, r20
    1f62:	80 0d       	add	r24, r0
    1f64:	91 1d       	adc	r25, r1
    1f66:	11 24       	eor	r1, r1
    1f68:	08 95       	ret

00001f6a <__udivmodsi4>:
    1f6a:	a1 e2       	ldi	r26, 0x21	; 33
    1f6c:	1a 2e       	mov	r1, r26
    1f6e:	aa 1b       	sub	r26, r26
    1f70:	bb 1b       	sub	r27, r27
    1f72:	fd 01       	movw	r30, r26
    1f74:	0d c0       	rjmp	.+26     	; 0x1f90 <__udivmodsi4_ep>

00001f76 <__udivmodsi4_loop>:
    1f76:	aa 1f       	adc	r26, r26
    1f78:	bb 1f       	adc	r27, r27
    1f7a:	ee 1f       	adc	r30, r30
    1f7c:	ff 1f       	adc	r31, r31
    1f7e:	a2 17       	cp	r26, r18
    1f80:	b3 07       	cpc	r27, r19
    1f82:	e4 07       	cpc	r30, r20
    1f84:	f5 07       	cpc	r31, r21
    1f86:	20 f0       	brcs	.+8      	; 0x1f90 <__udivmodsi4_ep>
    1f88:	a2 1b       	sub	r26, r18
    1f8a:	b3 0b       	sbc	r27, r19
    1f8c:	e4 0b       	sbc	r30, r20
    1f8e:	f5 0b       	sbc	r31, r21

00001f90 <__udivmodsi4_ep>:
    1f90:	66 1f       	adc	r22, r22
    1f92:	77 1f       	adc	r23, r23
    1f94:	88 1f       	adc	r24, r24
    1f96:	99 1f       	adc	r25, r25
    1f98:	1a 94       	dec	r1
    1f9a:	69 f7       	brne	.-38     	; 0x1f76 <__udivmodsi4_loop>
    1f9c:	60 95       	com	r22
    1f9e:	70 95       	com	r23
    1fa0:	80 95       	com	r24
    1fa2:	90 95       	com	r25
    1fa4:	9b 01       	movw	r18, r22
    1fa6:	ac 01       	movw	r20, r24
    1fa8:	bd 01       	movw	r22, r26
    1faa:	cf 01       	movw	r24, r30
    1fac:	08 95       	ret

00001fae <__umulhisi3>:
    1fae:	a2 9f       	mul	r26, r18
    1fb0:	b0 01       	movw	r22, r0
    1fb2:	b3 9f       	mul	r27, r19
    1fb4:	c0 01       	movw	r24, r0
    1fb6:	a3 9f       	mul	r26, r19
    1fb8:	70 0d       	add	r23, r0
    1fba:	81 1d       	adc	r24, r1
    1fbc:	11 24       	eor	r1, r1
    1fbe:	91 1d       	adc	r25, r1
    1fc0:	b2 9f       	mul	r27, r18
    1fc2:	70 0d       	add	r23, r0
    1fc4:	81 1d       	adc	r24, r1
    1fc6:	11 24       	eor	r1, r1
    1fc8:	91 1d       	adc	r25, r1
    1fca:	08 95       	ret

00001fcc <malloc>:
    1fcc:	cf 93       	push	r28
    1fce:	df 93       	push	r29
    1fd0:	82 30       	cpi	r24, 0x02	; 2
    1fd2:	91 05       	cpc	r25, r1
    1fd4:	10 f4       	brcc	.+4      	; 0x1fda <malloc+0xe>
    1fd6:	82 e0       	ldi	r24, 0x02	; 2
    1fd8:	90 e0       	ldi	r25, 0x00	; 0
    1fda:	e0 91 e2 20 	lds	r30, 0x20E2
    1fde:	f0 91 e3 20 	lds	r31, 0x20E3
    1fe2:	20 e0       	ldi	r18, 0x00	; 0
    1fe4:	30 e0       	ldi	r19, 0x00	; 0
    1fe6:	a0 e0       	ldi	r26, 0x00	; 0
    1fe8:	b0 e0       	ldi	r27, 0x00	; 0
    1fea:	30 97       	sbiw	r30, 0x00	; 0
    1fec:	39 f1       	breq	.+78     	; 0x203c <malloc+0x70>
    1fee:	40 81       	ld	r20, Z
    1ff0:	51 81       	ldd	r21, Z+1	; 0x01
    1ff2:	48 17       	cp	r20, r24
    1ff4:	59 07       	cpc	r21, r25
    1ff6:	b8 f0       	brcs	.+46     	; 0x2026 <malloc+0x5a>
    1ff8:	48 17       	cp	r20, r24
    1ffa:	59 07       	cpc	r21, r25
    1ffc:	71 f4       	brne	.+28     	; 0x201a <malloc+0x4e>
    1ffe:	82 81       	ldd	r24, Z+2	; 0x02
    2000:	93 81       	ldd	r25, Z+3	; 0x03
    2002:	10 97       	sbiw	r26, 0x00	; 0
    2004:	29 f0       	breq	.+10     	; 0x2010 <malloc+0x44>
    2006:	13 96       	adiw	r26, 0x03	; 3
    2008:	9c 93       	st	X, r25
    200a:	8e 93       	st	-X, r24
    200c:	12 97       	sbiw	r26, 0x02	; 2
    200e:	2c c0       	rjmp	.+88     	; 0x2068 <malloc+0x9c>
    2010:	90 93 e3 20 	sts	0x20E3, r25
    2014:	80 93 e2 20 	sts	0x20E2, r24
    2018:	27 c0       	rjmp	.+78     	; 0x2068 <malloc+0x9c>
    201a:	21 15       	cp	r18, r1
    201c:	31 05       	cpc	r19, r1
    201e:	31 f0       	breq	.+12     	; 0x202c <malloc+0x60>
    2020:	42 17       	cp	r20, r18
    2022:	53 07       	cpc	r21, r19
    2024:	18 f0       	brcs	.+6      	; 0x202c <malloc+0x60>
    2026:	a9 01       	movw	r20, r18
    2028:	db 01       	movw	r26, r22
    202a:	01 c0       	rjmp	.+2      	; 0x202e <malloc+0x62>
    202c:	ef 01       	movw	r28, r30
    202e:	9a 01       	movw	r18, r20
    2030:	bd 01       	movw	r22, r26
    2032:	df 01       	movw	r26, r30
    2034:	02 80       	ldd	r0, Z+2	; 0x02
    2036:	f3 81       	ldd	r31, Z+3	; 0x03
    2038:	e0 2d       	mov	r30, r0
    203a:	d7 cf       	rjmp	.-82     	; 0x1fea <malloc+0x1e>
    203c:	21 15       	cp	r18, r1
    203e:	31 05       	cpc	r19, r1
    2040:	f9 f0       	breq	.+62     	; 0x2080 <malloc+0xb4>
    2042:	28 1b       	sub	r18, r24
    2044:	39 0b       	sbc	r19, r25
    2046:	24 30       	cpi	r18, 0x04	; 4
    2048:	31 05       	cpc	r19, r1
    204a:	80 f4       	brcc	.+32     	; 0x206c <malloc+0xa0>
    204c:	8a 81       	ldd	r24, Y+2	; 0x02
    204e:	9b 81       	ldd	r25, Y+3	; 0x03
    2050:	61 15       	cp	r22, r1
    2052:	71 05       	cpc	r23, r1
    2054:	21 f0       	breq	.+8      	; 0x205e <malloc+0x92>
    2056:	fb 01       	movw	r30, r22
    2058:	93 83       	std	Z+3, r25	; 0x03
    205a:	82 83       	std	Z+2, r24	; 0x02
    205c:	04 c0       	rjmp	.+8      	; 0x2066 <malloc+0x9a>
    205e:	90 93 e3 20 	sts	0x20E3, r25
    2062:	80 93 e2 20 	sts	0x20E2, r24
    2066:	fe 01       	movw	r30, r28
    2068:	32 96       	adiw	r30, 0x02	; 2
    206a:	44 c0       	rjmp	.+136    	; 0x20f4 <malloc+0x128>
    206c:	fe 01       	movw	r30, r28
    206e:	e2 0f       	add	r30, r18
    2070:	f3 1f       	adc	r31, r19
    2072:	81 93       	st	Z+, r24
    2074:	91 93       	st	Z+, r25
    2076:	22 50       	subi	r18, 0x02	; 2
    2078:	31 09       	sbc	r19, r1
    207a:	39 83       	std	Y+1, r19	; 0x01
    207c:	28 83       	st	Y, r18
    207e:	3a c0       	rjmp	.+116    	; 0x20f4 <malloc+0x128>
    2080:	20 91 e0 20 	lds	r18, 0x20E0
    2084:	30 91 e1 20 	lds	r19, 0x20E1
    2088:	23 2b       	or	r18, r19
    208a:	41 f4       	brne	.+16     	; 0x209c <malloc+0xd0>
    208c:	20 91 02 01 	lds	r18, 0x0102
    2090:	30 91 03 01 	lds	r19, 0x0103
    2094:	30 93 e1 20 	sts	0x20E1, r19
    2098:	20 93 e0 20 	sts	0x20E0, r18
    209c:	20 91 00 01 	lds	r18, 0x0100
    20a0:	30 91 01 01 	lds	r19, 0x0101
    20a4:	21 15       	cp	r18, r1
    20a6:	31 05       	cpc	r19, r1
    20a8:	41 f4       	brne	.+16     	; 0x20ba <malloc+0xee>
    20aa:	2d b7       	in	r18, 0x3d	; 61
    20ac:	3e b7       	in	r19, 0x3e	; 62
    20ae:	40 91 04 01 	lds	r20, 0x0104
    20b2:	50 91 05 01 	lds	r21, 0x0105
    20b6:	24 1b       	sub	r18, r20
    20b8:	35 0b       	sbc	r19, r21
    20ba:	e0 91 e0 20 	lds	r30, 0x20E0
    20be:	f0 91 e1 20 	lds	r31, 0x20E1
    20c2:	e2 17       	cp	r30, r18
    20c4:	f3 07       	cpc	r31, r19
    20c6:	a0 f4       	brcc	.+40     	; 0x20f0 <malloc+0x124>
    20c8:	2e 1b       	sub	r18, r30
    20ca:	3f 0b       	sbc	r19, r31
    20cc:	28 17       	cp	r18, r24
    20ce:	39 07       	cpc	r19, r25
    20d0:	78 f0       	brcs	.+30     	; 0x20f0 <malloc+0x124>
    20d2:	ac 01       	movw	r20, r24
    20d4:	4e 5f       	subi	r20, 0xFE	; 254
    20d6:	5f 4f       	sbci	r21, 0xFF	; 255
    20d8:	24 17       	cp	r18, r20
    20da:	35 07       	cpc	r19, r21
    20dc:	48 f0       	brcs	.+18     	; 0x20f0 <malloc+0x124>
    20de:	4e 0f       	add	r20, r30
    20e0:	5f 1f       	adc	r21, r31
    20e2:	50 93 e1 20 	sts	0x20E1, r21
    20e6:	40 93 e0 20 	sts	0x20E0, r20
    20ea:	81 93       	st	Z+, r24
    20ec:	91 93       	st	Z+, r25
    20ee:	02 c0       	rjmp	.+4      	; 0x20f4 <malloc+0x128>
    20f0:	e0 e0       	ldi	r30, 0x00	; 0
    20f2:	f0 e0       	ldi	r31, 0x00	; 0
    20f4:	cf 01       	movw	r24, r30
    20f6:	df 91       	pop	r29
    20f8:	cf 91       	pop	r28
    20fa:	08 95       	ret

000020fc <free>:
    20fc:	cf 93       	push	r28
    20fe:	df 93       	push	r29
    2100:	00 97       	sbiw	r24, 0x00	; 0
    2102:	09 f4       	brne	.+2      	; 0x2106 <free+0xa>
    2104:	87 c0       	rjmp	.+270    	; 0x2214 <free+0x118>
    2106:	fc 01       	movw	r30, r24
    2108:	32 97       	sbiw	r30, 0x02	; 2
    210a:	13 82       	std	Z+3, r1	; 0x03
    210c:	12 82       	std	Z+2, r1	; 0x02
    210e:	c0 91 e2 20 	lds	r28, 0x20E2
    2112:	d0 91 e3 20 	lds	r29, 0x20E3
    2116:	20 97       	sbiw	r28, 0x00	; 0
    2118:	81 f4       	brne	.+32     	; 0x213a <free+0x3e>
    211a:	20 81       	ld	r18, Z
    211c:	31 81       	ldd	r19, Z+1	; 0x01
    211e:	28 0f       	add	r18, r24
    2120:	39 1f       	adc	r19, r25
    2122:	80 91 e0 20 	lds	r24, 0x20E0
    2126:	90 91 e1 20 	lds	r25, 0x20E1
    212a:	82 17       	cp	r24, r18
    212c:	93 07       	cpc	r25, r19
    212e:	79 f5       	brne	.+94     	; 0x218e <free+0x92>
    2130:	f0 93 e1 20 	sts	0x20E1, r31
    2134:	e0 93 e0 20 	sts	0x20E0, r30
    2138:	6d c0       	rjmp	.+218    	; 0x2214 <free+0x118>
    213a:	de 01       	movw	r26, r28
    213c:	20 e0       	ldi	r18, 0x00	; 0
    213e:	30 e0       	ldi	r19, 0x00	; 0
    2140:	ae 17       	cp	r26, r30
    2142:	bf 07       	cpc	r27, r31
    2144:	50 f4       	brcc	.+20     	; 0x215a <free+0x5e>
    2146:	12 96       	adiw	r26, 0x02	; 2
    2148:	4d 91       	ld	r20, X+
    214a:	5c 91       	ld	r21, X
    214c:	13 97       	sbiw	r26, 0x03	; 3
    214e:	9d 01       	movw	r18, r26
    2150:	41 15       	cp	r20, r1
    2152:	51 05       	cpc	r21, r1
    2154:	09 f1       	breq	.+66     	; 0x2198 <free+0x9c>
    2156:	da 01       	movw	r26, r20
    2158:	f3 cf       	rjmp	.-26     	; 0x2140 <free+0x44>
    215a:	b3 83       	std	Z+3, r27	; 0x03
    215c:	a2 83       	std	Z+2, r26	; 0x02
    215e:	40 81       	ld	r20, Z
    2160:	51 81       	ldd	r21, Z+1	; 0x01
    2162:	84 0f       	add	r24, r20
    2164:	95 1f       	adc	r25, r21
    2166:	8a 17       	cp	r24, r26
    2168:	9b 07       	cpc	r25, r27
    216a:	71 f4       	brne	.+28     	; 0x2188 <free+0x8c>
    216c:	8d 91       	ld	r24, X+
    216e:	9c 91       	ld	r25, X
    2170:	11 97       	sbiw	r26, 0x01	; 1
    2172:	84 0f       	add	r24, r20
    2174:	95 1f       	adc	r25, r21
    2176:	02 96       	adiw	r24, 0x02	; 2
    2178:	91 83       	std	Z+1, r25	; 0x01
    217a:	80 83       	st	Z, r24
    217c:	12 96       	adiw	r26, 0x02	; 2
    217e:	8d 91       	ld	r24, X+
    2180:	9c 91       	ld	r25, X
    2182:	13 97       	sbiw	r26, 0x03	; 3
    2184:	93 83       	std	Z+3, r25	; 0x03
    2186:	82 83       	std	Z+2, r24	; 0x02
    2188:	21 15       	cp	r18, r1
    218a:	31 05       	cpc	r19, r1
    218c:	29 f4       	brne	.+10     	; 0x2198 <free+0x9c>
    218e:	f0 93 e3 20 	sts	0x20E3, r31
    2192:	e0 93 e2 20 	sts	0x20E2, r30
    2196:	3e c0       	rjmp	.+124    	; 0x2214 <free+0x118>
    2198:	d9 01       	movw	r26, r18
    219a:	13 96       	adiw	r26, 0x03	; 3
    219c:	fc 93       	st	X, r31
    219e:	ee 93       	st	-X, r30
    21a0:	12 97       	sbiw	r26, 0x02	; 2
    21a2:	4d 91       	ld	r20, X+
    21a4:	5d 91       	ld	r21, X+
    21a6:	a4 0f       	add	r26, r20
    21a8:	b5 1f       	adc	r27, r21
    21aa:	ea 17       	cp	r30, r26
    21ac:	fb 07       	cpc	r31, r27
    21ae:	79 f4       	brne	.+30     	; 0x21ce <free+0xd2>
    21b0:	80 81       	ld	r24, Z
    21b2:	91 81       	ldd	r25, Z+1	; 0x01
    21b4:	84 0f       	add	r24, r20
    21b6:	95 1f       	adc	r25, r21
    21b8:	02 96       	adiw	r24, 0x02	; 2
    21ba:	d9 01       	movw	r26, r18
    21bc:	11 96       	adiw	r26, 0x01	; 1
    21be:	9c 93       	st	X, r25
    21c0:	8e 93       	st	-X, r24
    21c2:	82 81       	ldd	r24, Z+2	; 0x02
    21c4:	93 81       	ldd	r25, Z+3	; 0x03
    21c6:	13 96       	adiw	r26, 0x03	; 3
    21c8:	9c 93       	st	X, r25
    21ca:	8e 93       	st	-X, r24
    21cc:	12 97       	sbiw	r26, 0x02	; 2
    21ce:	e0 e0       	ldi	r30, 0x00	; 0
    21d0:	f0 e0       	ldi	r31, 0x00	; 0
    21d2:	8a 81       	ldd	r24, Y+2	; 0x02
    21d4:	9b 81       	ldd	r25, Y+3	; 0x03
    21d6:	00 97       	sbiw	r24, 0x00	; 0
    21d8:	19 f0       	breq	.+6      	; 0x21e0 <free+0xe4>
    21da:	fe 01       	movw	r30, r28
    21dc:	ec 01       	movw	r28, r24
    21de:	f9 cf       	rjmp	.-14     	; 0x21d2 <free+0xd6>
    21e0:	ce 01       	movw	r24, r28
    21e2:	02 96       	adiw	r24, 0x02	; 2
    21e4:	28 81       	ld	r18, Y
    21e6:	39 81       	ldd	r19, Y+1	; 0x01
    21e8:	82 0f       	add	r24, r18
    21ea:	93 1f       	adc	r25, r19
    21ec:	20 91 e0 20 	lds	r18, 0x20E0
    21f0:	30 91 e1 20 	lds	r19, 0x20E1
    21f4:	28 17       	cp	r18, r24
    21f6:	39 07       	cpc	r19, r25
    21f8:	69 f4       	brne	.+26     	; 0x2214 <free+0x118>
    21fa:	30 97       	sbiw	r30, 0x00	; 0
    21fc:	29 f4       	brne	.+10     	; 0x2208 <free+0x10c>
    21fe:	10 92 e3 20 	sts	0x20E3, r1
    2202:	10 92 e2 20 	sts	0x20E2, r1
    2206:	02 c0       	rjmp	.+4      	; 0x220c <free+0x110>
    2208:	13 82       	std	Z+3, r1	; 0x03
    220a:	12 82       	std	Z+2, r1	; 0x02
    220c:	d0 93 e1 20 	sts	0x20E1, r29
    2210:	c0 93 e0 20 	sts	0x20E0, r28
    2214:	df 91       	pop	r29
    2216:	cf 91       	pop	r28
    2218:	08 95       	ret

0000221a <itoa>:
    221a:	fb 01       	movw	r30, r22
    221c:	9f 01       	movw	r18, r30
    221e:	e8 94       	clt
    2220:	42 30       	cpi	r20, 0x02	; 2
    2222:	c4 f0       	brlt	.+48     	; 0x2254 <itoa+0x3a>
    2224:	45 32       	cpi	r20, 0x25	; 37
    2226:	b4 f4       	brge	.+44     	; 0x2254 <itoa+0x3a>
    2228:	4a 30       	cpi	r20, 0x0A	; 10
    222a:	29 f4       	brne	.+10     	; 0x2236 <itoa+0x1c>
    222c:	97 fb       	bst	r25, 7
    222e:	1e f4       	brtc	.+6      	; 0x2236 <itoa+0x1c>
    2230:	90 95       	com	r25
    2232:	81 95       	neg	r24
    2234:	9f 4f       	sbci	r25, 0xFF	; 255
    2236:	64 2f       	mov	r22, r20
    2238:	77 27       	eor	r23, r23
    223a:	0e 94 71 0f 	call	0x1ee2	; 0x1ee2 <__udivmodhi4>
    223e:	80 5d       	subi	r24, 0xD0	; 208
    2240:	8a 33       	cpi	r24, 0x3A	; 58
    2242:	0c f0       	brlt	.+2      	; 0x2246 <itoa+0x2c>
    2244:	89 5d       	subi	r24, 0xD9	; 217
    2246:	81 93       	st	Z+, r24
    2248:	cb 01       	movw	r24, r22
    224a:	00 97       	sbiw	r24, 0x00	; 0
    224c:	a1 f7       	brne	.-24     	; 0x2236 <itoa+0x1c>
    224e:	16 f4       	brtc	.+4      	; 0x2254 <itoa+0x3a>
    2250:	5d e2       	ldi	r21, 0x2D	; 45
    2252:	51 93       	st	Z+, r21
    2254:	10 82       	st	Z, r1
    2256:	c9 01       	movw	r24, r18
    2258:	0c 94 57 13 	jmp	0x26ae	; 0x26ae <strrev>

0000225c <printf>:
    225c:	a0 e0       	ldi	r26, 0x00	; 0
    225e:	b0 e0       	ldi	r27, 0x00	; 0
    2260:	e4 e3       	ldi	r30, 0x34	; 52
    2262:	f1 e1       	ldi	r31, 0x11	; 17
    2264:	0c 94 07 14 	jmp	0x280e	; 0x280e <__prologue_saves__+0x20>
    2268:	fe 01       	movw	r30, r28
    226a:	35 96       	adiw	r30, 0x05	; 5
    226c:	61 91       	ld	r22, Z+
    226e:	71 91       	ld	r23, Z+
    2270:	af 01       	movw	r20, r30
    2272:	80 91 e6 20 	lds	r24, 0x20E6
    2276:	90 91 e7 20 	lds	r25, 0x20E7
    227a:	0e 94 6f 11 	call	0x22de	; 0x22de <vfprintf>
    227e:	e2 e0       	ldi	r30, 0x02	; 2
    2280:	0c 94 23 14 	jmp	0x2846	; 0x2846 <__epilogue_restores__+0x20>

00002284 <puts>:
    2284:	0f 93       	push	r16
    2286:	1f 93       	push	r17
    2288:	cf 93       	push	r28
    228a:	df 93       	push	r29
    228c:	e0 91 e6 20 	lds	r30, 0x20E6
    2290:	f0 91 e7 20 	lds	r31, 0x20E7
    2294:	23 81       	ldd	r18, Z+3	; 0x03
    2296:	21 ff       	sbrs	r18, 1
    2298:	1b c0       	rjmp	.+54     	; 0x22d0 <puts+0x4c>
    229a:	ec 01       	movw	r28, r24
    229c:	00 e0       	ldi	r16, 0x00	; 0
    229e:	10 e0       	ldi	r17, 0x00	; 0
    22a0:	89 91       	ld	r24, Y+
    22a2:	60 91 e6 20 	lds	r22, 0x20E6
    22a6:	70 91 e7 20 	lds	r23, 0x20E7
    22aa:	db 01       	movw	r26, r22
    22ac:	18 96       	adiw	r26, 0x08	; 8
    22ae:	ed 91       	ld	r30, X+
    22b0:	fc 91       	ld	r31, X
    22b2:	19 97       	sbiw	r26, 0x09	; 9
    22b4:	88 23       	and	r24, r24
    22b6:	31 f0       	breq	.+12     	; 0x22c4 <puts+0x40>
    22b8:	09 95       	icall
    22ba:	89 2b       	or	r24, r25
    22bc:	89 f3       	breq	.-30     	; 0x22a0 <puts+0x1c>
    22be:	0f ef       	ldi	r16, 0xFF	; 255
    22c0:	1f ef       	ldi	r17, 0xFF	; 255
    22c2:	ee cf       	rjmp	.-36     	; 0x22a0 <puts+0x1c>
    22c4:	8a e0       	ldi	r24, 0x0A	; 10
    22c6:	09 95       	icall
    22c8:	89 2b       	or	r24, r25
    22ca:	11 f4       	brne	.+4      	; 0x22d0 <puts+0x4c>
    22cc:	c8 01       	movw	r24, r16
    22ce:	02 c0       	rjmp	.+4      	; 0x22d4 <puts+0x50>
    22d0:	8f ef       	ldi	r24, 0xFF	; 255
    22d2:	9f ef       	ldi	r25, 0xFF	; 255
    22d4:	df 91       	pop	r29
    22d6:	cf 91       	pop	r28
    22d8:	1f 91       	pop	r17
    22da:	0f 91       	pop	r16
    22dc:	08 95       	ret

000022de <vfprintf>:
    22de:	ac e0       	ldi	r26, 0x0C	; 12
    22e0:	b0 e0       	ldi	r27, 0x00	; 0
    22e2:	e5 e7       	ldi	r30, 0x75	; 117
    22e4:	f1 e1       	ldi	r31, 0x11	; 17
    22e6:	0c 94 f7 13 	jmp	0x27ee	; 0x27ee <__prologue_saves__>
    22ea:	7c 01       	movw	r14, r24
    22ec:	6b 01       	movw	r12, r22
    22ee:	8a 01       	movw	r16, r20
    22f0:	fc 01       	movw	r30, r24
    22f2:	17 82       	std	Z+7, r1	; 0x07
    22f4:	16 82       	std	Z+6, r1	; 0x06
    22f6:	83 81       	ldd	r24, Z+3	; 0x03
    22f8:	81 ff       	sbrs	r24, 1
    22fa:	bd c1       	rjmp	.+890    	; 0x2676 <vfprintf+0x398>
    22fc:	ce 01       	movw	r24, r28
    22fe:	01 96       	adiw	r24, 0x01	; 1
    2300:	4c 01       	movw	r8, r24
    2302:	f7 01       	movw	r30, r14
    2304:	93 81       	ldd	r25, Z+3	; 0x03
    2306:	f6 01       	movw	r30, r12
    2308:	93 fd       	sbrc	r25, 3
    230a:	85 91       	lpm	r24, Z+
    230c:	93 ff       	sbrs	r25, 3
    230e:	81 91       	ld	r24, Z+
    2310:	6f 01       	movw	r12, r30
    2312:	88 23       	and	r24, r24
    2314:	09 f4       	brne	.+2      	; 0x2318 <vfprintf+0x3a>
    2316:	ab c1       	rjmp	.+854    	; 0x266e <vfprintf+0x390>
    2318:	85 32       	cpi	r24, 0x25	; 37
    231a:	39 f4       	brne	.+14     	; 0x232a <vfprintf+0x4c>
    231c:	93 fd       	sbrc	r25, 3
    231e:	85 91       	lpm	r24, Z+
    2320:	93 ff       	sbrs	r25, 3
    2322:	81 91       	ld	r24, Z+
    2324:	6f 01       	movw	r12, r30
    2326:	85 32       	cpi	r24, 0x25	; 37
    2328:	29 f4       	brne	.+10     	; 0x2334 <vfprintf+0x56>
    232a:	b7 01       	movw	r22, r14
    232c:	90 e0       	ldi	r25, 0x00	; 0
    232e:	0e 94 67 13 	call	0x26ce	; 0x26ce <fputc>
    2332:	e7 cf       	rjmp	.-50     	; 0x2302 <vfprintf+0x24>
    2334:	51 2c       	mov	r5, r1
    2336:	31 2c       	mov	r3, r1
    2338:	20 e0       	ldi	r18, 0x00	; 0
    233a:	20 32       	cpi	r18, 0x20	; 32
    233c:	a0 f4       	brcc	.+40     	; 0x2366 <vfprintf+0x88>
    233e:	8b 32       	cpi	r24, 0x2B	; 43
    2340:	69 f0       	breq	.+26     	; 0x235c <vfprintf+0x7e>
    2342:	30 f4       	brcc	.+12     	; 0x2350 <vfprintf+0x72>
    2344:	80 32       	cpi	r24, 0x20	; 32
    2346:	59 f0       	breq	.+22     	; 0x235e <vfprintf+0x80>
    2348:	83 32       	cpi	r24, 0x23	; 35
    234a:	69 f4       	brne	.+26     	; 0x2366 <vfprintf+0x88>
    234c:	20 61       	ori	r18, 0x10	; 16
    234e:	2c c0       	rjmp	.+88     	; 0x23a8 <vfprintf+0xca>
    2350:	8d 32       	cpi	r24, 0x2D	; 45
    2352:	39 f0       	breq	.+14     	; 0x2362 <vfprintf+0x84>
    2354:	80 33       	cpi	r24, 0x30	; 48
    2356:	39 f4       	brne	.+14     	; 0x2366 <vfprintf+0x88>
    2358:	21 60       	ori	r18, 0x01	; 1
    235a:	26 c0       	rjmp	.+76     	; 0x23a8 <vfprintf+0xca>
    235c:	22 60       	ori	r18, 0x02	; 2
    235e:	24 60       	ori	r18, 0x04	; 4
    2360:	23 c0       	rjmp	.+70     	; 0x23a8 <vfprintf+0xca>
    2362:	28 60       	ori	r18, 0x08	; 8
    2364:	21 c0       	rjmp	.+66     	; 0x23a8 <vfprintf+0xca>
    2366:	27 fd       	sbrc	r18, 7
    2368:	27 c0       	rjmp	.+78     	; 0x23b8 <vfprintf+0xda>
    236a:	30 ed       	ldi	r19, 0xD0	; 208
    236c:	38 0f       	add	r19, r24
    236e:	3a 30       	cpi	r19, 0x0A	; 10
    2370:	78 f4       	brcc	.+30     	; 0x2390 <vfprintf+0xb2>
    2372:	26 ff       	sbrs	r18, 6
    2374:	06 c0       	rjmp	.+12     	; 0x2382 <vfprintf+0xa4>
    2376:	fa e0       	ldi	r31, 0x0A	; 10
    2378:	5f 9e       	mul	r5, r31
    237a:	30 0d       	add	r19, r0
    237c:	11 24       	eor	r1, r1
    237e:	53 2e       	mov	r5, r19
    2380:	13 c0       	rjmp	.+38     	; 0x23a8 <vfprintf+0xca>
    2382:	8a e0       	ldi	r24, 0x0A	; 10
    2384:	38 9e       	mul	r3, r24
    2386:	30 0d       	add	r19, r0
    2388:	11 24       	eor	r1, r1
    238a:	33 2e       	mov	r3, r19
    238c:	20 62       	ori	r18, 0x20	; 32
    238e:	0c c0       	rjmp	.+24     	; 0x23a8 <vfprintf+0xca>
    2390:	8e 32       	cpi	r24, 0x2E	; 46
    2392:	21 f4       	brne	.+8      	; 0x239c <vfprintf+0xbe>
    2394:	26 fd       	sbrc	r18, 6
    2396:	6b c1       	rjmp	.+726    	; 0x266e <vfprintf+0x390>
    2398:	20 64       	ori	r18, 0x40	; 64
    239a:	06 c0       	rjmp	.+12     	; 0x23a8 <vfprintf+0xca>
    239c:	8c 36       	cpi	r24, 0x6C	; 108
    239e:	11 f4       	brne	.+4      	; 0x23a4 <vfprintf+0xc6>
    23a0:	20 68       	ori	r18, 0x80	; 128
    23a2:	02 c0       	rjmp	.+4      	; 0x23a8 <vfprintf+0xca>
    23a4:	88 36       	cpi	r24, 0x68	; 104
    23a6:	41 f4       	brne	.+16     	; 0x23b8 <vfprintf+0xda>
    23a8:	f6 01       	movw	r30, r12
    23aa:	93 fd       	sbrc	r25, 3
    23ac:	85 91       	lpm	r24, Z+
    23ae:	93 ff       	sbrs	r25, 3
    23b0:	81 91       	ld	r24, Z+
    23b2:	6f 01       	movw	r12, r30
    23b4:	81 11       	cpse	r24, r1
    23b6:	c1 cf       	rjmp	.-126    	; 0x233a <vfprintf+0x5c>
    23b8:	98 2f       	mov	r25, r24
    23ba:	9f 7d       	andi	r25, 0xDF	; 223
    23bc:	95 54       	subi	r25, 0x45	; 69
    23be:	93 30       	cpi	r25, 0x03	; 3
    23c0:	28 f4       	brcc	.+10     	; 0x23cc <vfprintf+0xee>
    23c2:	0c 5f       	subi	r16, 0xFC	; 252
    23c4:	1f 4f       	sbci	r17, 0xFF	; 255
    23c6:	ff e3       	ldi	r31, 0x3F	; 63
    23c8:	f9 83       	std	Y+1, r31	; 0x01
    23ca:	0d c0       	rjmp	.+26     	; 0x23e6 <vfprintf+0x108>
    23cc:	83 36       	cpi	r24, 0x63	; 99
    23ce:	31 f0       	breq	.+12     	; 0x23dc <vfprintf+0xfe>
    23d0:	83 37       	cpi	r24, 0x73	; 115
    23d2:	71 f0       	breq	.+28     	; 0x23f0 <vfprintf+0x112>
    23d4:	83 35       	cpi	r24, 0x53	; 83
    23d6:	09 f0       	breq	.+2      	; 0x23da <vfprintf+0xfc>
    23d8:	5b c0       	rjmp	.+182    	; 0x2490 <vfprintf+0x1b2>
    23da:	22 c0       	rjmp	.+68     	; 0x2420 <vfprintf+0x142>
    23dc:	f8 01       	movw	r30, r16
    23de:	80 81       	ld	r24, Z
    23e0:	89 83       	std	Y+1, r24	; 0x01
    23e2:	0e 5f       	subi	r16, 0xFE	; 254
    23e4:	1f 4f       	sbci	r17, 0xFF	; 255
    23e6:	44 24       	eor	r4, r4
    23e8:	43 94       	inc	r4
    23ea:	51 2c       	mov	r5, r1
    23ec:	54 01       	movw	r10, r8
    23ee:	15 c0       	rjmp	.+42     	; 0x241a <vfprintf+0x13c>
    23f0:	38 01       	movw	r6, r16
    23f2:	f2 e0       	ldi	r31, 0x02	; 2
    23f4:	6f 0e       	add	r6, r31
    23f6:	71 1c       	adc	r7, r1
    23f8:	f8 01       	movw	r30, r16
    23fa:	a0 80       	ld	r10, Z
    23fc:	b1 80       	ldd	r11, Z+1	; 0x01
    23fe:	26 ff       	sbrs	r18, 6
    2400:	03 c0       	rjmp	.+6      	; 0x2408 <vfprintf+0x12a>
    2402:	65 2d       	mov	r22, r5
    2404:	70 e0       	ldi	r23, 0x00	; 0
    2406:	02 c0       	rjmp	.+4      	; 0x240c <vfprintf+0x12e>
    2408:	6f ef       	ldi	r22, 0xFF	; 255
    240a:	7f ef       	ldi	r23, 0xFF	; 255
    240c:	c5 01       	movw	r24, r10
    240e:	2c 87       	std	Y+12, r18	; 0x0c
    2410:	0e 94 4c 13 	call	0x2698	; 0x2698 <strnlen>
    2414:	2c 01       	movw	r4, r24
    2416:	83 01       	movw	r16, r6
    2418:	2c 85       	ldd	r18, Y+12	; 0x0c
    241a:	2f 77       	andi	r18, 0x7F	; 127
    241c:	22 2e       	mov	r2, r18
    241e:	17 c0       	rjmp	.+46     	; 0x244e <vfprintf+0x170>
    2420:	38 01       	movw	r6, r16
    2422:	f2 e0       	ldi	r31, 0x02	; 2
    2424:	6f 0e       	add	r6, r31
    2426:	71 1c       	adc	r7, r1
    2428:	f8 01       	movw	r30, r16
    242a:	a0 80       	ld	r10, Z
    242c:	b1 80       	ldd	r11, Z+1	; 0x01
    242e:	26 ff       	sbrs	r18, 6
    2430:	03 c0       	rjmp	.+6      	; 0x2438 <vfprintf+0x15a>
    2432:	65 2d       	mov	r22, r5
    2434:	70 e0       	ldi	r23, 0x00	; 0
    2436:	02 c0       	rjmp	.+4      	; 0x243c <vfprintf+0x15e>
    2438:	6f ef       	ldi	r22, 0xFF	; 255
    243a:	7f ef       	ldi	r23, 0xFF	; 255
    243c:	c5 01       	movw	r24, r10
    243e:	2c 87       	std	Y+12, r18	; 0x0c
    2440:	0e 94 41 13 	call	0x2682	; 0x2682 <strnlen_P>
    2444:	2c 01       	movw	r4, r24
    2446:	2c 85       	ldd	r18, Y+12	; 0x0c
    2448:	20 68       	ori	r18, 0x80	; 128
    244a:	22 2e       	mov	r2, r18
    244c:	83 01       	movw	r16, r6
    244e:	23 fc       	sbrc	r2, 3
    2450:	1b c0       	rjmp	.+54     	; 0x2488 <vfprintf+0x1aa>
    2452:	83 2d       	mov	r24, r3
    2454:	90 e0       	ldi	r25, 0x00	; 0
    2456:	48 16       	cp	r4, r24
    2458:	59 06       	cpc	r5, r25
    245a:	b0 f4       	brcc	.+44     	; 0x2488 <vfprintf+0x1aa>
    245c:	b7 01       	movw	r22, r14
    245e:	80 e2       	ldi	r24, 0x20	; 32
    2460:	90 e0       	ldi	r25, 0x00	; 0
    2462:	0e 94 67 13 	call	0x26ce	; 0x26ce <fputc>
    2466:	3a 94       	dec	r3
    2468:	f4 cf       	rjmp	.-24     	; 0x2452 <vfprintf+0x174>
    246a:	f5 01       	movw	r30, r10
    246c:	27 fc       	sbrc	r2, 7
    246e:	85 91       	lpm	r24, Z+
    2470:	27 fe       	sbrs	r2, 7
    2472:	81 91       	ld	r24, Z+
    2474:	5f 01       	movw	r10, r30
    2476:	b7 01       	movw	r22, r14
    2478:	90 e0       	ldi	r25, 0x00	; 0
    247a:	0e 94 67 13 	call	0x26ce	; 0x26ce <fputc>
    247e:	31 10       	cpse	r3, r1
    2480:	3a 94       	dec	r3
    2482:	f1 e0       	ldi	r31, 0x01	; 1
    2484:	4f 1a       	sub	r4, r31
    2486:	51 08       	sbc	r5, r1
    2488:	41 14       	cp	r4, r1
    248a:	51 04       	cpc	r5, r1
    248c:	71 f7       	brne	.-36     	; 0x246a <vfprintf+0x18c>
    248e:	e5 c0       	rjmp	.+458    	; 0x265a <vfprintf+0x37c>
    2490:	84 36       	cpi	r24, 0x64	; 100
    2492:	11 f0       	breq	.+4      	; 0x2498 <vfprintf+0x1ba>
    2494:	89 36       	cpi	r24, 0x69	; 105
    2496:	39 f5       	brne	.+78     	; 0x24e6 <vfprintf+0x208>
    2498:	f8 01       	movw	r30, r16
    249a:	27 ff       	sbrs	r18, 7
    249c:	07 c0       	rjmp	.+14     	; 0x24ac <vfprintf+0x1ce>
    249e:	60 81       	ld	r22, Z
    24a0:	71 81       	ldd	r23, Z+1	; 0x01
    24a2:	82 81       	ldd	r24, Z+2	; 0x02
    24a4:	93 81       	ldd	r25, Z+3	; 0x03
    24a6:	0c 5f       	subi	r16, 0xFC	; 252
    24a8:	1f 4f       	sbci	r17, 0xFF	; 255
    24aa:	08 c0       	rjmp	.+16     	; 0x24bc <vfprintf+0x1de>
    24ac:	60 81       	ld	r22, Z
    24ae:	71 81       	ldd	r23, Z+1	; 0x01
    24b0:	88 27       	eor	r24, r24
    24b2:	77 fd       	sbrc	r23, 7
    24b4:	80 95       	com	r24
    24b6:	98 2f       	mov	r25, r24
    24b8:	0e 5f       	subi	r16, 0xFE	; 254
    24ba:	1f 4f       	sbci	r17, 0xFF	; 255
    24bc:	2f 76       	andi	r18, 0x6F	; 111
    24be:	b2 2e       	mov	r11, r18
    24c0:	97 ff       	sbrs	r25, 7
    24c2:	09 c0       	rjmp	.+18     	; 0x24d6 <vfprintf+0x1f8>
    24c4:	90 95       	com	r25
    24c6:	80 95       	com	r24
    24c8:	70 95       	com	r23
    24ca:	61 95       	neg	r22
    24cc:	7f 4f       	sbci	r23, 0xFF	; 255
    24ce:	8f 4f       	sbci	r24, 0xFF	; 255
    24d0:	9f 4f       	sbci	r25, 0xFF	; 255
    24d2:	20 68       	ori	r18, 0x80	; 128
    24d4:	b2 2e       	mov	r11, r18
    24d6:	2a e0       	ldi	r18, 0x0A	; 10
    24d8:	30 e0       	ldi	r19, 0x00	; 0
    24da:	a4 01       	movw	r20, r8
    24dc:	0e 94 99 13 	call	0x2732	; 0x2732 <__ultoa_invert>
    24e0:	a8 2e       	mov	r10, r24
    24e2:	a8 18       	sub	r10, r8
    24e4:	44 c0       	rjmp	.+136    	; 0x256e <vfprintf+0x290>
    24e6:	85 37       	cpi	r24, 0x75	; 117
    24e8:	29 f4       	brne	.+10     	; 0x24f4 <vfprintf+0x216>
    24ea:	2f 7e       	andi	r18, 0xEF	; 239
    24ec:	b2 2e       	mov	r11, r18
    24ee:	2a e0       	ldi	r18, 0x0A	; 10
    24f0:	30 e0       	ldi	r19, 0x00	; 0
    24f2:	25 c0       	rjmp	.+74     	; 0x253e <vfprintf+0x260>
    24f4:	f2 2f       	mov	r31, r18
    24f6:	f9 7f       	andi	r31, 0xF9	; 249
    24f8:	bf 2e       	mov	r11, r31
    24fa:	8f 36       	cpi	r24, 0x6F	; 111
    24fc:	c1 f0       	breq	.+48     	; 0x252e <vfprintf+0x250>
    24fe:	18 f4       	brcc	.+6      	; 0x2506 <vfprintf+0x228>
    2500:	88 35       	cpi	r24, 0x58	; 88
    2502:	79 f0       	breq	.+30     	; 0x2522 <vfprintf+0x244>
    2504:	b4 c0       	rjmp	.+360    	; 0x266e <vfprintf+0x390>
    2506:	80 37       	cpi	r24, 0x70	; 112
    2508:	19 f0       	breq	.+6      	; 0x2510 <vfprintf+0x232>
    250a:	88 37       	cpi	r24, 0x78	; 120
    250c:	21 f0       	breq	.+8      	; 0x2516 <vfprintf+0x238>
    250e:	af c0       	rjmp	.+350    	; 0x266e <vfprintf+0x390>
    2510:	2f 2f       	mov	r18, r31
    2512:	20 61       	ori	r18, 0x10	; 16
    2514:	b2 2e       	mov	r11, r18
    2516:	b4 fe       	sbrs	r11, 4
    2518:	0d c0       	rjmp	.+26     	; 0x2534 <vfprintf+0x256>
    251a:	8b 2d       	mov	r24, r11
    251c:	84 60       	ori	r24, 0x04	; 4
    251e:	b8 2e       	mov	r11, r24
    2520:	09 c0       	rjmp	.+18     	; 0x2534 <vfprintf+0x256>
    2522:	24 ff       	sbrs	r18, 4
    2524:	0a c0       	rjmp	.+20     	; 0x253a <vfprintf+0x25c>
    2526:	9f 2f       	mov	r25, r31
    2528:	96 60       	ori	r25, 0x06	; 6
    252a:	b9 2e       	mov	r11, r25
    252c:	06 c0       	rjmp	.+12     	; 0x253a <vfprintf+0x25c>
    252e:	28 e0       	ldi	r18, 0x08	; 8
    2530:	30 e0       	ldi	r19, 0x00	; 0
    2532:	05 c0       	rjmp	.+10     	; 0x253e <vfprintf+0x260>
    2534:	20 e1       	ldi	r18, 0x10	; 16
    2536:	30 e0       	ldi	r19, 0x00	; 0
    2538:	02 c0       	rjmp	.+4      	; 0x253e <vfprintf+0x260>
    253a:	20 e1       	ldi	r18, 0x10	; 16
    253c:	32 e0       	ldi	r19, 0x02	; 2
    253e:	f8 01       	movw	r30, r16
    2540:	b7 fe       	sbrs	r11, 7
    2542:	07 c0       	rjmp	.+14     	; 0x2552 <vfprintf+0x274>
    2544:	60 81       	ld	r22, Z
    2546:	71 81       	ldd	r23, Z+1	; 0x01
    2548:	82 81       	ldd	r24, Z+2	; 0x02
    254a:	93 81       	ldd	r25, Z+3	; 0x03
    254c:	0c 5f       	subi	r16, 0xFC	; 252
    254e:	1f 4f       	sbci	r17, 0xFF	; 255
    2550:	06 c0       	rjmp	.+12     	; 0x255e <vfprintf+0x280>
    2552:	60 81       	ld	r22, Z
    2554:	71 81       	ldd	r23, Z+1	; 0x01
    2556:	80 e0       	ldi	r24, 0x00	; 0
    2558:	90 e0       	ldi	r25, 0x00	; 0
    255a:	0e 5f       	subi	r16, 0xFE	; 254
    255c:	1f 4f       	sbci	r17, 0xFF	; 255
    255e:	a4 01       	movw	r20, r8
    2560:	0e 94 99 13 	call	0x2732	; 0x2732 <__ultoa_invert>
    2564:	a8 2e       	mov	r10, r24
    2566:	a8 18       	sub	r10, r8
    2568:	fb 2d       	mov	r31, r11
    256a:	ff 77       	andi	r31, 0x7F	; 127
    256c:	bf 2e       	mov	r11, r31
    256e:	b6 fe       	sbrs	r11, 6
    2570:	0b c0       	rjmp	.+22     	; 0x2588 <vfprintf+0x2aa>
    2572:	2b 2d       	mov	r18, r11
    2574:	2e 7f       	andi	r18, 0xFE	; 254
    2576:	a5 14       	cp	r10, r5
    2578:	50 f4       	brcc	.+20     	; 0x258e <vfprintf+0x2b0>
    257a:	b4 fe       	sbrs	r11, 4
    257c:	0a c0       	rjmp	.+20     	; 0x2592 <vfprintf+0x2b4>
    257e:	b2 fc       	sbrc	r11, 2
    2580:	08 c0       	rjmp	.+16     	; 0x2592 <vfprintf+0x2b4>
    2582:	2b 2d       	mov	r18, r11
    2584:	2e 7e       	andi	r18, 0xEE	; 238
    2586:	05 c0       	rjmp	.+10     	; 0x2592 <vfprintf+0x2b4>
    2588:	7a 2c       	mov	r7, r10
    258a:	2b 2d       	mov	r18, r11
    258c:	03 c0       	rjmp	.+6      	; 0x2594 <vfprintf+0x2b6>
    258e:	7a 2c       	mov	r7, r10
    2590:	01 c0       	rjmp	.+2      	; 0x2594 <vfprintf+0x2b6>
    2592:	75 2c       	mov	r7, r5
    2594:	24 ff       	sbrs	r18, 4
    2596:	0d c0       	rjmp	.+26     	; 0x25b2 <vfprintf+0x2d4>
    2598:	fe 01       	movw	r30, r28
    259a:	ea 0d       	add	r30, r10
    259c:	f1 1d       	adc	r31, r1
    259e:	80 81       	ld	r24, Z
    25a0:	80 33       	cpi	r24, 0x30	; 48
    25a2:	11 f4       	brne	.+4      	; 0x25a8 <vfprintf+0x2ca>
    25a4:	29 7e       	andi	r18, 0xE9	; 233
    25a6:	09 c0       	rjmp	.+18     	; 0x25ba <vfprintf+0x2dc>
    25a8:	22 ff       	sbrs	r18, 2
    25aa:	06 c0       	rjmp	.+12     	; 0x25b8 <vfprintf+0x2da>
    25ac:	73 94       	inc	r7
    25ae:	73 94       	inc	r7
    25b0:	04 c0       	rjmp	.+8      	; 0x25ba <vfprintf+0x2dc>
    25b2:	82 2f       	mov	r24, r18
    25b4:	86 78       	andi	r24, 0x86	; 134
    25b6:	09 f0       	breq	.+2      	; 0x25ba <vfprintf+0x2dc>
    25b8:	73 94       	inc	r7
    25ba:	23 fd       	sbrc	r18, 3
    25bc:	13 c0       	rjmp	.+38     	; 0x25e4 <vfprintf+0x306>
    25be:	20 ff       	sbrs	r18, 0
    25c0:	06 c0       	rjmp	.+12     	; 0x25ce <vfprintf+0x2f0>
    25c2:	5a 2c       	mov	r5, r10
    25c4:	73 14       	cp	r7, r3
    25c6:	18 f4       	brcc	.+6      	; 0x25ce <vfprintf+0x2f0>
    25c8:	53 0c       	add	r5, r3
    25ca:	57 18       	sub	r5, r7
    25cc:	73 2c       	mov	r7, r3
    25ce:	73 14       	cp	r7, r3
    25d0:	68 f4       	brcc	.+26     	; 0x25ec <vfprintf+0x30e>
    25d2:	b7 01       	movw	r22, r14
    25d4:	80 e2       	ldi	r24, 0x20	; 32
    25d6:	90 e0       	ldi	r25, 0x00	; 0
    25d8:	2c 87       	std	Y+12, r18	; 0x0c
    25da:	0e 94 67 13 	call	0x26ce	; 0x26ce <fputc>
    25de:	73 94       	inc	r7
    25e0:	2c 85       	ldd	r18, Y+12	; 0x0c
    25e2:	f5 cf       	rjmp	.-22     	; 0x25ce <vfprintf+0x2f0>
    25e4:	73 14       	cp	r7, r3
    25e6:	10 f4       	brcc	.+4      	; 0x25ec <vfprintf+0x30e>
    25e8:	37 18       	sub	r3, r7
    25ea:	01 c0       	rjmp	.+2      	; 0x25ee <vfprintf+0x310>
    25ec:	31 2c       	mov	r3, r1
    25ee:	24 ff       	sbrs	r18, 4
    25f0:	12 c0       	rjmp	.+36     	; 0x2616 <vfprintf+0x338>
    25f2:	b7 01       	movw	r22, r14
    25f4:	80 e3       	ldi	r24, 0x30	; 48
    25f6:	90 e0       	ldi	r25, 0x00	; 0
    25f8:	2c 87       	std	Y+12, r18	; 0x0c
    25fa:	0e 94 67 13 	call	0x26ce	; 0x26ce <fputc>
    25fe:	2c 85       	ldd	r18, Y+12	; 0x0c
    2600:	22 ff       	sbrs	r18, 2
    2602:	17 c0       	rjmp	.+46     	; 0x2632 <vfprintf+0x354>
    2604:	21 ff       	sbrs	r18, 1
    2606:	03 c0       	rjmp	.+6      	; 0x260e <vfprintf+0x330>
    2608:	88 e5       	ldi	r24, 0x58	; 88
    260a:	90 e0       	ldi	r25, 0x00	; 0
    260c:	02 c0       	rjmp	.+4      	; 0x2612 <vfprintf+0x334>
    260e:	88 e7       	ldi	r24, 0x78	; 120
    2610:	90 e0       	ldi	r25, 0x00	; 0
    2612:	b7 01       	movw	r22, r14
    2614:	0c c0       	rjmp	.+24     	; 0x262e <vfprintf+0x350>
    2616:	82 2f       	mov	r24, r18
    2618:	86 78       	andi	r24, 0x86	; 134
    261a:	59 f0       	breq	.+22     	; 0x2632 <vfprintf+0x354>
    261c:	21 fd       	sbrc	r18, 1
    261e:	02 c0       	rjmp	.+4      	; 0x2624 <vfprintf+0x346>
    2620:	80 e2       	ldi	r24, 0x20	; 32
    2622:	01 c0       	rjmp	.+2      	; 0x2626 <vfprintf+0x348>
    2624:	8b e2       	ldi	r24, 0x2B	; 43
    2626:	27 fd       	sbrc	r18, 7
    2628:	8d e2       	ldi	r24, 0x2D	; 45
    262a:	b7 01       	movw	r22, r14
    262c:	90 e0       	ldi	r25, 0x00	; 0
    262e:	0e 94 67 13 	call	0x26ce	; 0x26ce <fputc>
    2632:	a5 14       	cp	r10, r5
    2634:	38 f4       	brcc	.+14     	; 0x2644 <vfprintf+0x366>
    2636:	b7 01       	movw	r22, r14
    2638:	80 e3       	ldi	r24, 0x30	; 48
    263a:	90 e0       	ldi	r25, 0x00	; 0
    263c:	0e 94 67 13 	call	0x26ce	; 0x26ce <fputc>
    2640:	5a 94       	dec	r5
    2642:	f7 cf       	rjmp	.-18     	; 0x2632 <vfprintf+0x354>
    2644:	aa 94       	dec	r10
    2646:	f4 01       	movw	r30, r8
    2648:	ea 0d       	add	r30, r10
    264a:	f1 1d       	adc	r31, r1
    264c:	80 81       	ld	r24, Z
    264e:	b7 01       	movw	r22, r14
    2650:	90 e0       	ldi	r25, 0x00	; 0
    2652:	0e 94 67 13 	call	0x26ce	; 0x26ce <fputc>
    2656:	a1 10       	cpse	r10, r1
    2658:	f5 cf       	rjmp	.-22     	; 0x2644 <vfprintf+0x366>
    265a:	33 20       	and	r3, r3
    265c:	09 f4       	brne	.+2      	; 0x2660 <vfprintf+0x382>
    265e:	51 ce       	rjmp	.-862    	; 0x2302 <vfprintf+0x24>
    2660:	b7 01       	movw	r22, r14
    2662:	80 e2       	ldi	r24, 0x20	; 32
    2664:	90 e0       	ldi	r25, 0x00	; 0
    2666:	0e 94 67 13 	call	0x26ce	; 0x26ce <fputc>
    266a:	3a 94       	dec	r3
    266c:	f6 cf       	rjmp	.-20     	; 0x265a <vfprintf+0x37c>
    266e:	f7 01       	movw	r30, r14
    2670:	86 81       	ldd	r24, Z+6	; 0x06
    2672:	97 81       	ldd	r25, Z+7	; 0x07
    2674:	02 c0       	rjmp	.+4      	; 0x267a <vfprintf+0x39c>
    2676:	8f ef       	ldi	r24, 0xFF	; 255
    2678:	9f ef       	ldi	r25, 0xFF	; 255
    267a:	2c 96       	adiw	r28, 0x0c	; 12
    267c:	e2 e1       	ldi	r30, 0x12	; 18
    267e:	0c 94 13 14 	jmp	0x2826	; 0x2826 <__epilogue_restores__>

00002682 <strnlen_P>:
    2682:	fc 01       	movw	r30, r24
    2684:	05 90       	lpm	r0, Z+
    2686:	61 50       	subi	r22, 0x01	; 1
    2688:	70 40       	sbci	r23, 0x00	; 0
    268a:	01 10       	cpse	r0, r1
    268c:	d8 f7       	brcc	.-10     	; 0x2684 <strnlen_P+0x2>
    268e:	80 95       	com	r24
    2690:	90 95       	com	r25
    2692:	8e 0f       	add	r24, r30
    2694:	9f 1f       	adc	r25, r31
    2696:	08 95       	ret

00002698 <strnlen>:
    2698:	fc 01       	movw	r30, r24
    269a:	61 50       	subi	r22, 0x01	; 1
    269c:	70 40       	sbci	r23, 0x00	; 0
    269e:	01 90       	ld	r0, Z+
    26a0:	01 10       	cpse	r0, r1
    26a2:	d8 f7       	brcc	.-10     	; 0x269a <strnlen+0x2>
    26a4:	80 95       	com	r24
    26a6:	90 95       	com	r25
    26a8:	8e 0f       	add	r24, r30
    26aa:	9f 1f       	adc	r25, r31
    26ac:	08 95       	ret

000026ae <strrev>:
    26ae:	dc 01       	movw	r26, r24
    26b0:	fc 01       	movw	r30, r24
    26b2:	67 2f       	mov	r22, r23
    26b4:	71 91       	ld	r23, Z+
    26b6:	77 23       	and	r23, r23
    26b8:	e1 f7       	brne	.-8      	; 0x26b2 <strrev+0x4>
    26ba:	32 97       	sbiw	r30, 0x02	; 2
    26bc:	04 c0       	rjmp	.+8      	; 0x26c6 <strrev+0x18>
    26be:	7c 91       	ld	r23, X
    26c0:	6d 93       	st	X+, r22
    26c2:	70 83       	st	Z, r23
    26c4:	62 91       	ld	r22, -Z
    26c6:	ae 17       	cp	r26, r30
    26c8:	bf 07       	cpc	r27, r31
    26ca:	c8 f3       	brcs	.-14     	; 0x26be <strrev+0x10>
    26cc:	08 95       	ret

000026ce <fputc>:
    26ce:	0f 93       	push	r16
    26d0:	1f 93       	push	r17
    26d2:	cf 93       	push	r28
    26d4:	df 93       	push	r29
    26d6:	18 2f       	mov	r17, r24
    26d8:	09 2f       	mov	r16, r25
    26da:	eb 01       	movw	r28, r22
    26dc:	8b 81       	ldd	r24, Y+3	; 0x03
    26de:	81 fd       	sbrc	r24, 1
    26e0:	03 c0       	rjmp	.+6      	; 0x26e8 <fputc+0x1a>
    26e2:	8f ef       	ldi	r24, 0xFF	; 255
    26e4:	9f ef       	ldi	r25, 0xFF	; 255
    26e6:	20 c0       	rjmp	.+64     	; 0x2728 <fputc+0x5a>
    26e8:	82 ff       	sbrs	r24, 2
    26ea:	10 c0       	rjmp	.+32     	; 0x270c <fputc+0x3e>
    26ec:	4e 81       	ldd	r20, Y+6	; 0x06
    26ee:	5f 81       	ldd	r21, Y+7	; 0x07
    26f0:	2c 81       	ldd	r18, Y+4	; 0x04
    26f2:	3d 81       	ldd	r19, Y+5	; 0x05
    26f4:	42 17       	cp	r20, r18
    26f6:	53 07       	cpc	r21, r19
    26f8:	7c f4       	brge	.+30     	; 0x2718 <fputc+0x4a>
    26fa:	e8 81       	ld	r30, Y
    26fc:	f9 81       	ldd	r31, Y+1	; 0x01
    26fe:	9f 01       	movw	r18, r30
    2700:	2f 5f       	subi	r18, 0xFF	; 255
    2702:	3f 4f       	sbci	r19, 0xFF	; 255
    2704:	39 83       	std	Y+1, r19	; 0x01
    2706:	28 83       	st	Y, r18
    2708:	10 83       	st	Z, r17
    270a:	06 c0       	rjmp	.+12     	; 0x2718 <fputc+0x4a>
    270c:	e8 85       	ldd	r30, Y+8	; 0x08
    270e:	f9 85       	ldd	r31, Y+9	; 0x09
    2710:	81 2f       	mov	r24, r17
    2712:	09 95       	icall
    2714:	89 2b       	or	r24, r25
    2716:	29 f7       	brne	.-54     	; 0x26e2 <fputc+0x14>
    2718:	2e 81       	ldd	r18, Y+6	; 0x06
    271a:	3f 81       	ldd	r19, Y+7	; 0x07
    271c:	2f 5f       	subi	r18, 0xFF	; 255
    271e:	3f 4f       	sbci	r19, 0xFF	; 255
    2720:	3f 83       	std	Y+7, r19	; 0x07
    2722:	2e 83       	std	Y+6, r18	; 0x06
    2724:	81 2f       	mov	r24, r17
    2726:	90 2f       	mov	r25, r16
    2728:	df 91       	pop	r29
    272a:	cf 91       	pop	r28
    272c:	1f 91       	pop	r17
    272e:	0f 91       	pop	r16
    2730:	08 95       	ret

00002732 <__ultoa_invert>:
    2732:	fa 01       	movw	r30, r20
    2734:	aa 27       	eor	r26, r26
    2736:	28 30       	cpi	r18, 0x08	; 8
    2738:	51 f1       	breq	.+84     	; 0x278e <__ultoa_invert+0x5c>
    273a:	20 31       	cpi	r18, 0x10	; 16
    273c:	81 f1       	breq	.+96     	; 0x279e <__ultoa_invert+0x6c>
    273e:	e8 94       	clt
    2740:	6f 93       	push	r22
    2742:	6e 7f       	andi	r22, 0xFE	; 254
    2744:	6e 5f       	subi	r22, 0xFE	; 254
    2746:	7f 4f       	sbci	r23, 0xFF	; 255
    2748:	8f 4f       	sbci	r24, 0xFF	; 255
    274a:	9f 4f       	sbci	r25, 0xFF	; 255
    274c:	af 4f       	sbci	r26, 0xFF	; 255
    274e:	b1 e0       	ldi	r27, 0x01	; 1
    2750:	3e d0       	rcall	.+124    	; 0x27ce <__ultoa_invert+0x9c>
    2752:	b4 e0       	ldi	r27, 0x04	; 4
    2754:	3c d0       	rcall	.+120    	; 0x27ce <__ultoa_invert+0x9c>
    2756:	67 0f       	add	r22, r23
    2758:	78 1f       	adc	r23, r24
    275a:	89 1f       	adc	r24, r25
    275c:	9a 1f       	adc	r25, r26
    275e:	a1 1d       	adc	r26, r1
    2760:	68 0f       	add	r22, r24
    2762:	79 1f       	adc	r23, r25
    2764:	8a 1f       	adc	r24, r26
    2766:	91 1d       	adc	r25, r1
    2768:	a1 1d       	adc	r26, r1
    276a:	6a 0f       	add	r22, r26
    276c:	71 1d       	adc	r23, r1
    276e:	81 1d       	adc	r24, r1
    2770:	91 1d       	adc	r25, r1
    2772:	a1 1d       	adc	r26, r1
    2774:	20 d0       	rcall	.+64     	; 0x27b6 <__ultoa_invert+0x84>
    2776:	09 f4       	brne	.+2      	; 0x277a <__ultoa_invert+0x48>
    2778:	68 94       	set
    277a:	3f 91       	pop	r19
    277c:	2a e0       	ldi	r18, 0x0A	; 10
    277e:	26 9f       	mul	r18, r22
    2780:	11 24       	eor	r1, r1
    2782:	30 19       	sub	r19, r0
    2784:	30 5d       	subi	r19, 0xD0	; 208
    2786:	31 93       	st	Z+, r19
    2788:	de f6       	brtc	.-74     	; 0x2740 <__ultoa_invert+0xe>
    278a:	cf 01       	movw	r24, r30
    278c:	08 95       	ret
    278e:	46 2f       	mov	r20, r22
    2790:	47 70       	andi	r20, 0x07	; 7
    2792:	40 5d       	subi	r20, 0xD0	; 208
    2794:	41 93       	st	Z+, r20
    2796:	b3 e0       	ldi	r27, 0x03	; 3
    2798:	0f d0       	rcall	.+30     	; 0x27b8 <__ultoa_invert+0x86>
    279a:	c9 f7       	brne	.-14     	; 0x278e <__ultoa_invert+0x5c>
    279c:	f6 cf       	rjmp	.-20     	; 0x278a <__ultoa_invert+0x58>
    279e:	46 2f       	mov	r20, r22
    27a0:	4f 70       	andi	r20, 0x0F	; 15
    27a2:	40 5d       	subi	r20, 0xD0	; 208
    27a4:	4a 33       	cpi	r20, 0x3A	; 58
    27a6:	18 f0       	brcs	.+6      	; 0x27ae <__ultoa_invert+0x7c>
    27a8:	49 5d       	subi	r20, 0xD9	; 217
    27aa:	31 fd       	sbrc	r19, 1
    27ac:	40 52       	subi	r20, 0x20	; 32
    27ae:	41 93       	st	Z+, r20
    27b0:	02 d0       	rcall	.+4      	; 0x27b6 <__ultoa_invert+0x84>
    27b2:	a9 f7       	brne	.-22     	; 0x279e <__ultoa_invert+0x6c>
    27b4:	ea cf       	rjmp	.-44     	; 0x278a <__ultoa_invert+0x58>
    27b6:	b4 e0       	ldi	r27, 0x04	; 4
    27b8:	a6 95       	lsr	r26
    27ba:	97 95       	ror	r25
    27bc:	87 95       	ror	r24
    27be:	77 95       	ror	r23
    27c0:	67 95       	ror	r22
    27c2:	ba 95       	dec	r27
    27c4:	c9 f7       	brne	.-14     	; 0x27b8 <__ultoa_invert+0x86>
    27c6:	00 97       	sbiw	r24, 0x00	; 0
    27c8:	61 05       	cpc	r22, r1
    27ca:	71 05       	cpc	r23, r1
    27cc:	08 95       	ret
    27ce:	9b 01       	movw	r18, r22
    27d0:	ac 01       	movw	r20, r24
    27d2:	0a 2e       	mov	r0, r26
    27d4:	06 94       	lsr	r0
    27d6:	57 95       	ror	r21
    27d8:	47 95       	ror	r20
    27da:	37 95       	ror	r19
    27dc:	27 95       	ror	r18
    27de:	ba 95       	dec	r27
    27e0:	c9 f7       	brne	.-14     	; 0x27d4 <__ultoa_invert+0xa2>
    27e2:	62 0f       	add	r22, r18
    27e4:	73 1f       	adc	r23, r19
    27e6:	84 1f       	adc	r24, r20
    27e8:	95 1f       	adc	r25, r21
    27ea:	a0 1d       	adc	r26, r0
    27ec:	08 95       	ret

000027ee <__prologue_saves__>:
    27ee:	2f 92       	push	r2
    27f0:	3f 92       	push	r3
    27f2:	4f 92       	push	r4
    27f4:	5f 92       	push	r5
    27f6:	6f 92       	push	r6
    27f8:	7f 92       	push	r7
    27fa:	8f 92       	push	r8
    27fc:	9f 92       	push	r9
    27fe:	af 92       	push	r10
    2800:	bf 92       	push	r11
    2802:	cf 92       	push	r12
    2804:	df 92       	push	r13
    2806:	ef 92       	push	r14
    2808:	ff 92       	push	r15
    280a:	0f 93       	push	r16
    280c:	1f 93       	push	r17
    280e:	cf 93       	push	r28
    2810:	df 93       	push	r29
    2812:	cd b7       	in	r28, 0x3d	; 61
    2814:	de b7       	in	r29, 0x3e	; 62
    2816:	ca 1b       	sub	r28, r26
    2818:	db 0b       	sbc	r29, r27
    281a:	0f b6       	in	r0, 0x3f	; 63
    281c:	f8 94       	cli
    281e:	de bf       	out	0x3e, r29	; 62
    2820:	0f be       	out	0x3f, r0	; 63
    2822:	cd bf       	out	0x3d, r28	; 61
    2824:	09 94       	ijmp

00002826 <__epilogue_restores__>:
    2826:	2a 88       	ldd	r2, Y+18	; 0x12
    2828:	39 88       	ldd	r3, Y+17	; 0x11
    282a:	48 88       	ldd	r4, Y+16	; 0x10
    282c:	5f 84       	ldd	r5, Y+15	; 0x0f
    282e:	6e 84       	ldd	r6, Y+14	; 0x0e
    2830:	7d 84       	ldd	r7, Y+13	; 0x0d
    2832:	8c 84       	ldd	r8, Y+12	; 0x0c
    2834:	9b 84       	ldd	r9, Y+11	; 0x0b
    2836:	aa 84       	ldd	r10, Y+10	; 0x0a
    2838:	b9 84       	ldd	r11, Y+9	; 0x09
    283a:	c8 84       	ldd	r12, Y+8	; 0x08
    283c:	df 80       	ldd	r13, Y+7	; 0x07
    283e:	ee 80       	ldd	r14, Y+6	; 0x06
    2840:	fd 80       	ldd	r15, Y+5	; 0x05
    2842:	0c 81       	ldd	r16, Y+4	; 0x04
    2844:	1b 81       	ldd	r17, Y+3	; 0x03
    2846:	aa 81       	ldd	r26, Y+2	; 0x02
    2848:	b9 81       	ldd	r27, Y+1	; 0x01
    284a:	ce 0f       	add	r28, r30
    284c:	d1 1d       	adc	r29, r1
    284e:	0f b6       	in	r0, 0x3f	; 63
    2850:	f8 94       	cli
    2852:	de bf       	out	0x3e, r29	; 62
    2854:	0f be       	out	0x3f, r0	; 63
    2856:	cd bf       	out	0x3d, r28	; 61
    2858:	ed 01       	movw	r28, r26
    285a:	08 95       	ret

0000285c <_exit>:
    285c:	f8 94       	cli

0000285e <__stop_program>:
    285e:	ff cf       	rjmp	.-2      	; 0x285e <__stop_program>
